(dp0
V1138_bus
p1
I1
sV494_bus
p2
I2
sV662_bus
p3
I3
sV685_bus
p4
I4
sVabb313
p5
I5
sVarc130
p6
I6
sVash219
p7
I7
sVash292
p8
I8
sVash331
p9
I9
sVash608
p10
I10
sVash85
p11
I11
sVash958
p12
I12
sVbcspwr01
p13
I13
sVbcspwr02
p14
I14
sVbcspwr03
p15
I15
sVbcspwr04
p16
I16
sVbcspwr05
p17
I17
sVbcspwr06
p18
I18
sVbcspwr07
p19
I19
sVbcspwr08
p20
I20
sVbcspwr09
p21
I21
sVbcspwr10
p22
I22
sVbcsstk01
p23
I23
sVbcsstk02
p24
I24
sVbcsstk03
p25
I25
sVbcsstk04
p26
I26
sVbcsstk05
p27
I27
sVbcsstk06
p28
I28
sVbcsstk07
p29
I29
sVbcsstk08
p30
I30
sVbcsstk09
p31
I31
sVbcsstk10
p32
I32
sVbcsstk11
p33
I33
sVbcsstk12
p34
I34
sVbcsstk13
p35
I35
sVbcsstk14
p36
I36
sVbcsstk15
p37
I37
sVbcsstk16
p38
I38
sVbcsstk17
p39
I39
sVbcsstk18
p40
I40
sVbcsstk19
p41
I41
sVbcsstk20
p42
I42
sVbcsstk21
p43
I43
sVbcsstk22
p44
I44
sVbcsstk23
p45
I45
sVbcsstk24
p46
I46
sVbcsstk25
p47
I47
sVbcsstk26
p48
I48
sVbcsstk27
p49
I49
sVbcsstk28
p50
I50
sVbcsstk29
p51
I51
sVbcsstk30
p52
I52
sVbcsstk31
p53
I53
sVbcsstk32
p54
I54
sVbcsstk33
p55
I55
sVbcsstm01
p56
I56
sVbcsstm02
p57
I57
sVbcsstm03
p58
I58
sVbcsstm04
p59
I59
sVbcsstm05
p60
I60
sVbcsstm06
p61
I61
sVbcsstm07
p62
I62
sVbcsstm08
p63
I63
sVbcsstm09
p64
I64
sVbcsstm10
p65
I65
sVbcsstm11
p66
I66
sVbcsstm12
p67
I67
sVbcsstm13
p68
I68
sVbcsstm19
p69
I69
sVbcsstm20
p70
I70
sVbcsstm21
p71
I71
sVbcsstm22
p72
I72
sVbcsstm23
p73
I73
sVbcsstm24
p74
I74
sVbcsstm25
p75
I75
sVbcsstm26
p76
I76
sVbcsstm27
p77
I77
sVbeacxc
p78
I78
sVbeaflw
p79
I79
sVbeause
p80
I80
sVblckhole
p81
I81
sVbp_0
p82
I82
sVbp_1000
p83
I83
sVbp_1200
p84
I84
sVbp_1400
p85
I85
sVbp_1600
p86
I86
sVbp_200
p87
I87
sVbp_400
p88
I88
sVbp_600
p89
I89
sVbp_800
p90
I90
sVcan_1054
p91
I91
sVcan_1072
p92
I92
sVcan_144
p93
I93
sVcan_161
p94
I94
sVcan_187
p95
I95
sVcan_229
p96
I96
sVcan_24
p97
I97
sVcan_256
p98
I98
sVcan_268
p99
I99
sVcan_292
p100
I100
sVcan_445
p101
I101
sVcan_61
p102
I102
sVcan_62
p103
I103
sVcan_634
p104
I104
sVcan_715
p105
I105
sVcan_73
p106
I106
sVcan_838
p107
I107
sVcan_96
p108
I108
sVcurtis54
p109
I109
sVdwt_1005
p110
I110
sVdwt_1007
p111
I111
sVdwt_1242
p112
I112
sVdwt_162
p113
I113
sVdwt_193
p114
I114
sVdwt_198
p115
I115
sVdwt_209
p116
I116
sVdwt_221
p117
I117
sVdwt_234
p118
I118
sVdwt_245
p119
I119
sVdwt_2680
p120
I120
sVdwt_307
p121
I121
sVdwt_310
p122
I122
sVdwt_346
p123
I123
sVdwt_361
p124
I124
sVdwt_419
p125
I125
sVdwt_492
p126
I126
sVdwt_503
p127
I127
sVdwt_512
p128
I128
sVdwt_59
p129
I129
sVdwt_592
p130
I130
sVdwt_607
p131
I131
sVdwt_66
p132
I132
sVdwt_72
p133
I133
sVdwt_758
p134
I134
sVdwt_869
p135
I135
sVdwt_87
p136
I136
sVdwt_878
p137
I137
sVdwt_918
p138
I138
sVdwt_992
p139
I139
sVeris1176
p140
I140
sVfs_183_1
p141
I141
sVfs_183_3
p142
I142
sVfs_183_4
p143
I143
sVfs_183_6
p144
I144
sVfs_541_1
p145
I145
sVfs_541_2
p146
I146
sVfs_541_3
p147
I147
sVfs_541_4
p148
I148
sVfs_680_1
p149
I149
sVfs_680_2
p150
I150
sVfs_680_3
p151
I151
sVfs_760_1
p152
I152
sVfs_760_2
p153
I153
sVfs_760_3
p154
I154
sVgemat1
p155
I155
sVgemat11
p156
I156
sVgemat12
p157
I157
sVgent113
p158
I158
sVgr_30_30
p159
I159
sVgre_1107
p160
I160
sVgre_115
p161
I161
sVgre_185
p162
I162
sVgre_216a
p163
I163
sVgre_216b
p164
I164
sVgre_343
p165
I165
sVgre_512
p166
I166
sVhor_131
p167
I167
sVibm32
p168
I168
sVillc1033
p169
I169
sVillc1850
p170
I170
sVimpcol_a
p171
I171
sVimpcol_b
p172
I172
sVimpcol_c
p173
I173
sVimpcol_d
p174
I174
sVimpcol_e
p175
I175
sVjagmesh1
p176
I176
sVjagmesh2
p177
I177
sVjagmesh3
p178
I178
sVjagmesh4
p179
I179
sVjagmesh5
p180
I180
sVjagmesh6
p181
I181
sVjagmesh7
p182
I182
sVjagmesh8
p183
I183
sVjagmesh9
p184
I184
sVjgl009
p185
I185
sVjgl011
p186
I186
sVjpwh_991
p187
I187
sVlns_131
p188
I188
sVlns_3937
p189
I189
sVlns_511
p190
I190
sVlnsp3937
p191
I191
sVlnsp_131
p192
I192
sVlnsp_511
p193
I193
sVlshp1009
p194
I194
sVlshp1270
p195
I195
sVlshp1561
p196
I196
sVlshp1882
p197
I197
sVlshp2233
p198
I198
sVlshp2614
p199
I199
sVlshp3025
p200
I200
sVlshp3466
p201
I201
sVlshp_265
p202
I202
sVlshp_406
p203
I203
sVlshp_577
p204
I204
sVlshp_778
p205
I205
sVlund_a
p206
I206
sVlund_b
p207
I207
sVmahindas
p208
I208
sVmbeacxc
p209
I209
sVmbeaflw
p210
I210
sVmbeause
p211
I211
sVmcca
p212
I212
sVmcfe
p213
I213
sVnnc1374
p214
I214
sVnnc261
p215
I215
sVnnc666
p216
I216
sVnos1
p217
I217
sVnos2
p218
I218
sVnos3
p219
I219
sVnos4
p220
I220
sVnos5
p221
I221
sVnos6
p222
I222
sVnos7
p223
I223
sVorani678
p224
I224
sVorsirr_1
p225
I225
sVorsirr_2
p226
I226
sVorsreg_1
p227
I227
sVplat1919
p228
I228
sVplat362
p229
I229
sVplsk1919
p230
I230
sVplskz362
p231
I231
sVpores_1
p232
I232
sVpores_2
p233
I233
sVpores_3
p234
I234
sVpsmigr_1
p235
I235
sVpsmigr_2
p236
I236
sVpsmigr_3
p237
I237
sVrgg010
p238
I238
sVsaylr1
p239
I239
sVsaylr3
p240
I240
sVsaylr4
p241
I241
sVsherman1
p242
I242
sVsherman2
p243
I243
sVsherman3
p244
I244
sVsherman4
p245
I245
sVsherman5
p246
I246
sVshl_0
p247
I247
sVshl_200
p248
I248
sVshl_400
p249
I249
sVsstmodel
p250
I250
sVsteam1
p251
I251
sVsteam2
p252
I252
sVsteam3
p253
I253
sVstr_0
p254
I254
sVstr_200
p255
I255
sVstr_400
p256
I256
sVstr_600
p257
I257
sVwatt_1
p258
I258
sVwatt_2
p259
I259
sVwell1033
p260
I260
sVwell1850
p261
I261
sVwest0067
p262
I262
sVwest0132
p263
I263
sVwest0156
p264
I264
sVwest0167
p265
I265
sVwest0381
p266
I266
sVwest0479
p267
I267
sVwest0497
p268
I268
sVwest0655
p269
I269
sVwest0989
p270
I270
sVwest1505
p271
I271
sVwest2021
p272
I272
sVwill199
p273
I273
sVwill57
p274
I274
sVwm1
p275
I275
sVwm2
p276
I276
sVwm3
p277
I277
sVyoung1c
p278
I278
sVyoung2c
p279
I279
sVyoung3c
p280
I280
sVyoung4c
p281
I281
sVzenios
p282
I282
sVonetone1
p283
I283
sVonetone2
p284
I284
sVpre2
p285
I285
sVtwotone
p286
I286
sVepb0
p287
I287
sVepb1
p288
I288
sVepb2
p289
I289
sVepb3
p290
I290
sVaf23560
p291
I291
sVbfwa398
p292
I292
sVbfwa62
p293
I293
sVbfwa782
p294
I294
sVbfwb398
p295
I295
sVbfwb62
p296
I296
sVbfwb782
p297
I297
sVbwm200
p298
I298
sVbwm2000
p299
I299
sVcdde1
p300
I300
sVcdde2
p301
I301
sVcdde3
p302
I302
sVcdde4
p303
I303
sVcdde5
p304
I304
sVcdde6
p305
I305
sVck104
p306
I306
sVck400
p307
I307
sVck656
p308
I308
sVdw1024
p309
I309
sVdw256A
p310
I310
sVdw256B
p311
I311
sVdw4096
p312
I312
sVlop163
p313
I313
sVmhda416
p314
I314
sVmhdb416
p315
I315
sVodepa400
p316
I316
sVodepb400
p317
I317
sVolm100
p318
I318
sVolm1000
p319
I319
sVolm2000
p320
I320
sVolm500
p321
I321
sVolm5000
p322
I322
sVpde225
p323
I323
sVpde2961
p324
I324
sVpde900
p325
I325
sVqc2534
p326
I326
sVqc324
p327
I327
sVqh882
p328
I328
sVrbsa480
p329
I329
sVrbsb480
p330
I330
sVrdb2048
p331
I331
sVrdb5000
p332
I332
sVrdb968
p333
I333
sVrw136
p334
I334
sVrw496
p335
I335
sVrw5151
p336
I336
sVtub100
p337
I337
sVtub1000
p338
I338
sVbcsstk34
p339
I339
sVbcsstk35
p340
I340
sVbcsstk36
p341
I341
sVbcsstk37
p342
I342
sVbcsstk38
p343
I343
sVbcsstm34
p344
I344
sVbcsstm35
p345
I345
sVbcsstm36
p346
I346
sVbcsstm37
p347
I347
sVbcsstm38
p348
I348
sVbcsstm39
p349
I349
sVcrystk01
p350
I350
sVcrystk02
p351
I351
sVcrystk03
p352
I352
sVcrystm01
p353
I353
sVcrystm02
p354
I354
sVcrystm03
p355
I355
sVct20stif
p356
I356
sVmsc00726
p357
I357
sVmsc01050
p358
I358
sVmsc01440
p359
I359
sVmsc04515
p360
I360
sVmsc10848
p361
I361
sVmsc23052
p362
I362
sVnasa1824Boeing363
p363
I363
sVnasa2910
p364
I759
sVnasa4704
p365
I760
sVpcrystk02
p366
I366
sVpcrystk03
p367
I367
sVpct20stif
p368
I368
sVpwtk
p369
I369
sVcircuit_1
p370
I370
sVcircuit_2
p371
I371
sVcircuit_3
p372
I372
sVcircuit_4
p373
I373
sVrma10
p374
I374
sVcoater1
p375
I375
sVcoater2
p376
I376
sVthermal
p377
I377
sVmplate
p378
I378
sVvibrobox
p379
I379
sVcavity01
p380
I380
sVcavity02
p381
I381
sVcavity03
p382
I382
sVcavity04
p383
I383
sVcavity05
p384
I384
sVcavity06
p385
I385
sVcavity07
p386
I386
sVcavity08
p387
I387
sVcavity09
p388
I388
sVcavity10
p389
I389
sVcavity11
p390
I390
sVcavity12
p391
I391
sVcavity13
p392
I392
sVcavity14
p393
I393
sVcavity15
p394
I394
sVcavity16
p395
I395
sVcavity17
p396
I396
sVcavity18
p397
I397
sVcavity19
p398
I398
sVcavity20
p399
I399
sVcavity21
p400
I400
sVcavity22
p401
I401
sVcavity23
p402
I402
sVcavity24
p403
I403
sVcavity25
p404
I404
sVcavity26
p405
I405
sVex1
p406
I406
sVex10
p407
I407
sVex10hs
p408
I408
sVex11
p409
I409
sVex12
p410
I410
sVex13
p411
I411
sVex14
p412
I412
sVex15
p413
I413
sVex18
p414
I414
sVex19
p415
I415
sVex2
p416
I416
sVex20
p417
I417
sVex21
p418
I418
sVex22
p419
I419
sVex23
p420
I420
sVex24
p421
I421
sVex25
p422
I422
sVex26
p423
I423
sVex27
p424
I424
sVex28
p425
I425
sVex29
p426
I426
sVex3
p427
I427
sVex31
p428
I428
sVex32
p429
I429
sVex33
p430
I430
sVex35
p431
I431
sVex36
p432
I432
sVex37
p433
I433
sVex4
p434
I434
sVex40
p435
I435
sVex5
p436
I436
sVex6
p437
I437
sVex7
p438
I438
sVex8
p439
I439
sVex9
p440
I440
sVbig
p441
I441
sVnopoly
p442
I442
sVpesa
p443
I443
sVgaron1
p444
I444
sVgaron2
p445
I445
sVgoodwin
p446
I446
sVrim
p447
I447
sVgraham1
p448
I448
sVb1_ss
p449
I449
sVb2_ss
p450
I450
sVb_dyn
p451
I451
sVbayer01
p452
I452
sVbayer02
p453
I453
sVbayer03
p454
I454
sVbayer04
p455
I455
sVbayer05
p456
I456
sVbayer06
p457
I457
sVbayer07
p458
I458
sVbayer08
p459
I459
sVbayer09
p460
I460
sVbayer10
p461
I461
sVd_dyn
p462
I462
sVd_dyn1
p463
I463
sVd_ss
p464
I464
sVmeg1
p465
I465
sVmeg4
p466
I466
sVpoli
p467
I467
sVpoli_large
p468
I468
sVG1
p469
I469
sVG10
p470
I470
sVG11
p471
I471
sVG12
p472
I472
sVG13
p473
I473
sVG14
p474
I474
sVG15
p475
I475
sVG16
p476
I476
sVG17
p477
I477
sVG18
p478
I478
sVG19
p479
I479
sVG2
p480
I480
sVG20
p481
I481
sVG21
p482
I482
sVG22
p483
I483
sVG23
p484
I484
sVG24
p485
I485
sVG25
p486
I486
sVG26
p487
I487
sVG27
p488
I488
sVG28
p489
I489
sVG29
p490
I490
sVG3
p491
I491
sVG30
p492
I492
sVG31
p493
I493
sVG32
p494
I494
sVG33
p495
I495
sVG34
p496
I496
sVG35
p497
I497
sVG36
p498
I498
sVG37
p499
I499
sVG38
p500
I500
sVG39
p501
I501
sVG4
p502
I502
sVG40
p503
I503
sVG41
p504
I504
sVG42
p505
I505
sVG43
p506
I506
sVG44
p507
I507
sVG45
p508
I508
sVG46
p509
I509
sVG47
p510
I510
sVG48
p511
I511
sVG49
p512
I512
sVG5
p513
I513
sVG50
p514
I514
sVG51
p515
I515
sVG52
p516
I516
sVG53
p517
I517
sVG54
p518
I518
sVG55
p519
I519
sVG56
p520
I520
sVG57
p521
I521
sVG58
p522
I522
sVG59
p523
I523
sVG6
p524
I524
sVG60
p525
I525
sVG61
p526
I526
sVG62
p527
I527
sVG63
p528
I528
sVG64
p529
I529
sVG65
p530
I530
sVG66
p531
I531
sVG67
p532
I532
sVG7
p533
I533
sVG8
p534
I534
sVG9
p535
I535
sVgupta1
p536
I536
sVgupta2
p537
I537
sVgupta3
p538
I538
sVadd20
p539
I539
sVadd32
p540
I540
sVbcircuit
p541
I541
sVhcircuit
p542
I542
sVmemplus
p543
I543
sVscircuit
p544
I544
sVg7jac010
p545
I545
sVg7jac010sc
p546
I546
sVg7jac020
p547
I547
sVg7jac020sc
p548
I548
sVg7jac040
p549
I549
sVg7jac040sc
p550
I550
sVg7jac050sc
p551
I551
sVg7jac060
p552
I552
sVg7jac060sc
p553
I553
sVg7jac080
p554
I554
sVg7jac080sc
p555
I555
sVg7jac100
p556
I556
sVg7jac100sc
p557
I557
sVg7jac120
p558
I558
sVg7jac120sc
p559
I559
sVg7jac140
p560
I560
sVg7jac140sc
p561
I561
sVg7jac160
p562
I562
sVg7jac160sc
p563
I563
sVg7jac180
p564
I564
sVg7jac180sc
p565
I565
sVg7jac200
p566
I566
sVg7jac200sc
p567
I567
sVjan99jac020
p568
I568
sVjan99jac020sc
p569
I569
sVjan99jac040
p570
I570
sVjan99jac040sc
p571
I571
sVjan99jac060
p572
I572
sVjan99jac060sc
p573
I573
sVjan99jac080
p574
I574
sVjan99jac080sc
p575
I575
sVjan99jac100
p576
I576
sVjan99jac100sc
p577
I577
sVjan99jac120
p578
I578
sVjan99jac120sc
p579
I579
sVmark3jac020
p580
I580
sVmark3jac020sc
p581
I581
sVmark3jac040
p582
I582
sVmark3jac040sc
p583
I583
sVmark3jac060
p584
I584
sVmark3jac060sc
p585
I585
sVmark3jac080
p586
I586
sVmark3jac080sc
p587
I587
sVmark3jac100
p588
I588
sVmark3jac100sc
p589
I589
sVmark3jac120
p590
I590
sVmark3jac120sc
p591
I591
sVmark3jac140
p592
I592
sVmark3jac140sc
p593
I593
sVlp_25fv47
p594
I594
sVlp_80bau3b
p595
I595
sVlp_adlittle
p596
I596
sVlp_afiro
p597
I597
sVlp_agg
p598
I598
sVlp_agg2
p599
I599
sVlp_agg3
p600
I600
sVlp_bandm
p601
I601
sVlp_beaconfd
p602
I602
sVlp_blend
p603
I603
sVlp_bnl1
p604
I604
sVlp_bnl2
p605
I605
sVlp_bore3d
p606
I606
sVlp_brandy
p607
I607
sVlp_capri
p608
I608
sVlp_cre_a
p609
I609
sVlp_cre_b
p610
I610
sVlp_cre_c
p611
I611
sVlp_cre_d
p612
I612
sVlp_cycle
p613
I613
sVlp_czprob
p614
I614
sVlp_d2q06c
p615
I615
sVlp_d6cube
p616
I616
sVlp_degen2
p617
I617
sVlp_degen3
p618
I618
sVlp_dfl001
p619
I619
sVlp_e226
p620
I620
sVlp_etamacro
p621
I621
sVlp_fffff800
p622
I622
sVlp_finnis
p623
I623
sVlp_fit1d
p624
I624
sVlp_fit1p
p625
I625
sVlp_fit2d
p626
I626
sVlp_fit2p
p627
I627
sVlp_ganges
p628
I628
sVlp_gfrd_pnc
p629
I629
sVlp_greenbea
p630
I630
sVlp_greenbeb
p631
I631
sVlp_grow15
p632
I632
sVlp_grow22
p633
I633
sVlp_grow7
p634
I634
sVlp_israel
p635
I635
sVlp_kb2
p636
I636
sVlp_ken_07
p637
I637
sVlp_ken_11
p638
I638
sVlp_ken_13
p639
I639
sVlp_ken_18
p640
I640
sVlp_lotfi
p641
I641
sVlp_maros
p642
I642
sVlp_maros_r7
p643
I643
sVlp_modszk1
p644
I644
sVlp_osa_07
p645
I645
sVlp_osa_14
p646
I646
sVlp_osa_30
p647
I647
sVlp_osa_60
p648
I648
sVlp_pds_02
p649
I649
sVlp_pds_06
p650
I650
sVlp_pds_10
p651
I651
sVlp_pds_20
p652
I652
sVlp_perold
p653
I653
sVlp_pilot
p654
I654
sVlp_pilot4
p655
I655
sVlp_pilot87
p656
I656
sVlp_pilot_ja
p657
I657
sVlp_pilot_we
p658
I658
sVlp_pilotnov
p659
I659
sVlp_qap12
p660
I660
sVlp_qap15
p661
I661
sVlp_qap8
p662
I662
sVlp_recipe
p663
I663
sVlp_sc105
p664
I664
sVlp_sc205
p665
I665
sVlp_sc50a
p666
I666
sVlp_sc50b
p667
I667
sVlp_scagr25
p668
I668
sVlp_scagr7
p669
I669
sVlp_scfxm1
p670
I670
sVlp_scfxm2
p671
I671
sVlp_scfxm3
p672
I672
sVlp_scorpion
p673
I673
sVlp_scrs8
p674
I674
sVlp_scsd1
p675
I675
sVlp_scsd6
p676
I676
sVlp_scsd8
p677
I677
sVlp_sctap1
p678
I678
sVlp_sctap2
p679
I679
sVlp_sctap3
p680
I680
sVlp_share1b
p681
I681
sVlp_share2b
p682
I682
sVlp_shell
p683
I683
sVlp_ship04l
p684
I684
sVlp_ship04s
p685
I685
sVlp_ship08l
p686
I686
sVlp_ship08s
p687
I687
sVlp_ship12l
p688
I688
sVlp_ship12s
p689
I689
sVlp_sierra
p690
I690
sVlp_stair
p691
I691
sVlp_standata
p692
I692
sVlp_standgub
p693
I693
sVlp_standmps
p694
I694
sVlp_stocfor1
p695
I695
sVlp_stocfor2
p696
I696
sVlp_stocfor3
p697
I697
sVlp_truss
p698
I698
sVlp_tuff
p699
I699
sVlp_vtp_base
p700
I700
sVlp_wood1p
p701
I701
sVlp_woodw
p702
I702
sVlpi_bgdbg1
p703
I703
sVlpi_bgetam
p704
I704
sVlpi_bgindy
p705
I705
sVlpi_bgprtr
p706
I706
sVlpi_box1
p707
I707
sVlpi_ceria3d
p708
I708
sVlpi_chemcom
p709
I709
sVlpi_cplex1
p710
I710
sVlpi_cplex2
p711
I711
sVlpi_ex72a
p712
I712
sVlpi_ex73a
p713
I713
sVlpi_forest6
p714
I714
sVlpi_galenet
p715
I715
sVlpi_gosh
p716
I716
sVlpi_gran
p717
I717
sVlpi_greenbea
p718
I718
sVlpi_itest2
p719
I719
sVlpi_itest6
p720
I720
sVlpi_klein1
p721
I721
sVlpi_klein2
p722
I722
sVlpi_klein3
p723
I723
sVlpi_mondou2
p724
I724
sVlpi_pang
p725
I725
sVlpi_pilot4i
p726
I726
sVlpi_qual
p727
I727
sVlpi_reactor
p728
I728
sVlpi_refinery
p729
I729
sVlpi_vol1
p730
I730
sVlpi_woodinfe
p731
I731
sVli
p732
I732
sVpli
p733
I733
sVlhr01
p734
I734
sVlhr02
p735
I735
sVlhr04
p736
I736
sVlhr04c
p737
I737
sVlhr07
p738
I738
sVlhr07c
p739
I739
sVlhr10
p740
I740
sVlhr10c
p741
I741
sVlhr11
p742
I742
sVlhr11c
p743
I743
sVlhr14
p744
I744
sVlhr14c
p745
I745
sVlhr17
p746
I746
sVlhr17c
p747
I747
sVlhr34
p748
I748
sVlhr34c
p749
I749
sVlhr71
p750
I750
sVlhr71c
p751
I751
sVfinan512
p752
I752
sVpfinan512
p753
I753
sVbarth
p754
I865
sVbarth4
p755
I866
sVbarth5
p756
I867
sVnasa1824Nasa757
p757
I757
sVnasa2146
p758
I758
sVnasasrb
p759
I761
sVpwt
p760
I1273
sVshuttle_eddy
p761
I881
sVskirt
p762
I882
sVnemeth01
p763
I765
sVnemeth02
p764
I766
sVnemeth03
p765
I767
sVnemeth04
p766
I768
sVnemeth05
p767
I769
sVnemeth06
p768
I770
sVnemeth07
p769
I771
sVnemeth08
p770
I772
sVnemeth09
p771
I773
sVnemeth10
p772
I774
sVnemeth11
p773
I775
sVnemeth12
p774
I776
sVnemeth13
p775
I777
sVnemeth14
p776
I778
sVnemeth15
p777
I779
sVnemeth16
p778
I780
sVnemeth17
p779
I781
sVnemeth18
p780
I782
sVnemeth19
p781
I783
sVnemeth20
p782
I784
sVnemeth21
p783
I785
sVnemeth22
p784
I786
sVnemeth23
p785
I787
sVnemeth24
p786
I788
sVnemeth25
p787
I789
sVnemeth26
p788
I790
sVaft01
p789
I791
sVaft02
p790
I792
sVlp_nug05
p791
I793
sVlp_nug06
p792
I794
sVlp_nug07
p793
I795
sVlp_nug08
p794
I796
sVlp_nug12
p795
I797
sVlp_nug15
p796
I798
sVlp_nug20
p797
I799
sVlp_nug30
p798
I800
sVxenon1
p799
I801
sVxenon2
p800
I802
sV3dtube
p801
I803
sVcfd1
p802
I804
sVcfd2
p803
I805
sVgearbox
p804
I806
sVstruct3
p805
I807
sVstruct4
p806
I808
sVshyy161
p807
I809
sVshyy41
p808
I810
sVappu
p809
I811
sVbbmat
p810
I812
sVolafu
p811
I813
sVraefsky1
p812
I814
sVraefsky2
p813
I815
sVraefsky3
p814
I816
sVraefsky4
p815
I817
sVraefsky5
p816
I818
sVraefsky6
p817
I819
sVvenkat01
p818
I820
sVvenkat25
p819
I821
sVvenkat50
p820
I822
sVutm1700b
p821
I823
sVutm300
p822
I824
sVutm3060
p823
I825
sVutm5940
p824
I826
sVav41092
p825
I827
sVswang1
p826
I828
sVswang2
p827
I829
sVwang1
p828
I830
sVwang2
p829
I831
sVwang3
p830
I832
sVwang4
p831
I833
sVZhao1
p832
I834
sVZhao2
p833
I835
sVextr1
p834
I836
sVhydr1
p835
I837
sVradfr1
p836
I838
sVrdist1
p837
I839
sVrdist2
p838
I840
sVrdist3a
p839
I841
sVk3plates
p840
I842
sVm3plates
p841
I843
sVqa8fk
p842
I844
sVqa8fm
p843
I845
sVbcsstk39
p844
I846
sVpkustk01
p845
I847
sVpkustk02
p846
I848
sVpkustk03
p847
I849
sVpkustk04
p848
I850
sVpkustk05
p849
I851
sVpkustk06
p850
I852
sVpkustk07
p851
I853
sVpkustk08
p852
I854
sVpkustk09
p853
I855
sVpkustk10
p854
I856
sVpkustk11
p855
I857
sVpkustk12
p856
I858
sVpkustk13
p857
I859
sVpkustk14
p858
I860
sVpivtol
p859
I861
sVkim1
p860
I862
sVkim2
p861
I863
sVcomsol
p862
I864
sVbodyy4
p863
I868
sVbodyy5
p864
I869
sVbodyy6
p865
I870
sVcommanche_dual
p866
I871
sVmesh1e1
p867
I872
sVmesh1em1
p868
I873
sVmesh1em6
p869
I874
sVmesh2e1
p870
I875
sVmesh2em5
p871
I876
sVmesh3e1
p872
I877
sVmesh3em5
p873
I878
sVonera_dual
p874
I879
sVsphere2
p875
I883
sVsphere3
p876
I884
sVtandem_dual
p877
I885
sVtandem_vtx
p878
I886
sVfv1
p879
I887
sVfv2
p880
I888
sVfv3
p881
I889
sVheart1
p882
I890
sVheart2
p883
I891
sVheart3
p884
I892
sVlung1
p885
I893
sVlung2
p886
I894
sVstomach
p887
I895
sVtorso1
p888
I896
sVtorso2
p889
I897
sVtorso3
p890
I898
sVe40r0100
p891
I899
sVshermanACa
p892
I900
sVshermanACb
p893
I901
sVshermanACd
p894
I902
sVlandmark
p895
I903
sVcage3
p896
I904
sVcage4
p897
I905
sVcage5
p898
I906
sVcage6
p899
I907
sVcage7
p900
I908
sVcage8
p901
I909
sVcage9
p902
I910
sVcage10
p903
I911
sVcage11
p904
I912
sVcage12
p905
I913
sVcage13
p906
I914
sVcage14
p907
I915
sVcage15
p908
I916
sVfd12
p909
I917
sVfd15
p910
I918
sVfd18
p911
I919
sVsinc12
p912
I920
sVsinc15
p913
I921
sVsinc18
p914
I922
sVAlemdar
p915
I923
sVAndrews
p916
I924
sVns3Da
p917
I925
sVpoisson2D
p918
I926
sVpoisson3Da
p919
I927
sVpoisson3Db
p920
I928
sVproblem1
p921
I929
sVsme3Da
p922
I930
sVsme3Db
p923
I931
sVsme3Dc
p924
I932
sVwaveguide3D
p925
I933
sVcell1
p926
I934
sVcell2
p927
I935
sVnd3k
p928
I936
sVnd6k
p929
I937
sVnd12k
p930
I938
sVnd24k
p931
I939
sVaf_shell1
p932
I940
sVaf_shell2
p933
I941
sVaf_shell3
p934
I942
sVaf_shell4
p935
I943
sVaf_shell5
p936
I944
sVaf_shell6
p937
I945
sVaf_shell7
p938
I946
sVaf_shell8
p939
I947
sVaf_shell9
p940
I948
sVc-62
p941
I949
sVc-64
p942
I950
sVc-66
p943
I951
sVc-67
p944
I952
sVc-73
p945
I953
sV2D_27628_bjtcai
p946
I954
sV2D_54019_highK
p947
I955
sV3D_28984_Tetra
p948
I956
sV3D_51448_3D
p949
I957
sVibm_matrix_2
p950
I958
sVmatrix_9
p951
I959
sVmatrix-new_3
p952
I960
sVbarrier2-10
p953
I961
sVbarrier2-11
p954
I962
sVbarrier2-12
p955
I963
sVbarrier2-1
p956
I964
sVbarrier2-2
p957
I965
sVbarrier2-3
p958
I966
sVbarrier2-4
p959
I967
sVbarrier2-9
p960
I968
sVigbt3
p961
I969
sVnmos3
p962
I970
sVohne2
p963
I971
sVpara-10
p964
I972
sVpara-4
p965
I973
sVpara-5
p966
I974
sVpara-6
p967
I975
sVpara-7
p968
I976
sVpara-8
p969
I977
sVpara-9
p970
I978
sVStanford
p971
I979
sVStanford_Berkeley
p972
I980
sVgraphics
p973
I981
sVlanguage
p974
I982
sVecl32
p975
I983
sVadder_dcop_01
p976
I984
sVadder_dcop_02
p977
I985
sVadder_dcop_03
p978
I986
sVadder_dcop_04
p979
I987
sVadder_dcop_05
p980
I988
sVadder_dcop_06
p981
I989
sVadder_dcop_07
p982
I990
sVadder_dcop_08
p983
I991
sVadder_dcop_09
p984
I992
sVadder_dcop_10
p985
I993
sVadder_dcop_11
p986
I994
sVadder_dcop_12
p987
I995
sVadder_dcop_13
p988
I996
sVadder_dcop_14
p989
I997
sVadder_dcop_15
p990
I998
sVadder_dcop_16
p991
I999
sVadder_dcop_17
p992
I1000
sVadder_dcop_18
p993
I1001
sVadder_dcop_19
p994
I1002
sVadder_dcop_20
p995
I1003
sVadder_dcop_21
p996
I1004
sVadder_dcop_22
p997
I1005
sVadder_dcop_23
p998
I1006
sVadder_dcop_24
p999
I1007
sVadder_dcop_25
p1000
I1008
sVadder_dcop_26
p1001
I1009
sVadder_dcop_27
p1002
I1010
sVadder_dcop_28
p1003
I1011
sVadder_dcop_29
p1004
I1012
sVadder_dcop_30
p1005
I1013
sVadder_dcop_31
p1006
I1014
sVadder_dcop_32
p1007
I1015
sVadder_dcop_33
p1008
I1016
sVadder_dcop_34
p1009
I1017
sVadder_dcop_35
p1010
I1018
sVadder_dcop_36
p1011
I1019
sVadder_dcop_37
p1012
I1020
sVadder_dcop_38
p1013
I1021
sVadder_dcop_39
p1014
I1022
sVadder_dcop_40
p1015
I1023
sVadder_dcop_41
p1016
I1024
sVadder_dcop_42
p1017
I1025
sVadder_dcop_43
p1018
I1026
sVadder_dcop_44
p1019
I1027
sVadder_dcop_45
p1020
I1028
sVadder_dcop_46
p1021
I1029
sVadder_dcop_47
p1022
I1030
sVadder_dcop_48
p1023
I1031
sVadder_dcop_49
p1024
I1032
sVadder_dcop_50
p1025
I1033
sVadder_dcop_51
p1026
I1034
sVadder_dcop_52
p1027
I1035
sVadder_dcop_53
p1028
I1036
sVadder_dcop_54
p1029
I1037
sVadder_dcop_55
p1030
I1038
sVadder_dcop_56
p1031
I1039
sVadder_dcop_57
p1032
I1040
sVadder_dcop_58
p1033
I1041
sVadder_dcop_59
p1034
I1042
sVadder_dcop_60
p1035
I1043
sVadder_dcop_61
p1036
I1044
sVadder_dcop_62
p1037
I1045
sVadder_dcop_63
p1038
I1046
sVadder_dcop_64
p1039
I1047
sVadder_dcop_65
p1040
I1048
sVadder_dcop_66
p1041
I1049
sVadder_dcop_67
p1042
I1050
sVadder_dcop_68
p1043
I1051
sVadder_dcop_69
p1044
I1052
sVadder_trans_01
p1045
I1053
sVadder_trans_02
p1046
I1054
sVfpga_dcop_01
p1047
I1055
sVfpga_dcop_02
p1048
I1056
sVfpga_dcop_03
p1049
I1057
sVfpga_dcop_04
p1050
I1058
sVfpga_dcop_05
p1051
I1059
sVfpga_dcop_06
p1052
I1060
sVfpga_dcop_07
p1053
I1061
sVfpga_dcop_08
p1054
I1062
sVfpga_dcop_09
p1055
I1063
sVfpga_dcop_10
p1056
I1064
sVfpga_dcop_11
p1057
I1065
sVfpga_dcop_12
p1058
I1066
sVfpga_dcop_13
p1059
I1067
sVfpga_dcop_14
p1060
I1068
sVfpga_dcop_15
p1061
I1069
sVfpga_dcop_16
p1062
I1070
sVfpga_dcop_17
p1063
I1071
sVfpga_dcop_18
p1064
I1072
sVfpga_dcop_19
p1065
I1073
sVfpga_dcop_20
p1066
I1074
sVfpga_dcop_21
p1067
I1075
sVfpga_dcop_22
p1068
I1076
sVfpga_dcop_23
p1069
I1077
sVfpga_dcop_24
p1070
I1078
sVfpga_dcop_25
p1071
I1079
sVfpga_dcop_26
p1072
I1080
sVfpga_dcop_27
p1073
I1081
sVfpga_dcop_28
p1074
I1082
sVfpga_dcop_29
p1075
I1083
sVfpga_dcop_30
p1076
I1084
sVfpga_dcop_31
p1077
I1085
sVfpga_dcop_32
p1078
I1086
sVfpga_dcop_33
p1079
I1087
sVfpga_dcop_34
p1080
I1088
sVfpga_dcop_35
p1081
I1089
sVfpga_dcop_36
p1082
I1090
sVfpga_dcop_37
p1083
I1091
sVfpga_dcop_38
p1084
I1092
sVfpga_dcop_39
p1085
I1093
sVfpga_dcop_40
p1086
I1094
sVfpga_dcop_41
p1087
I1095
sVfpga_dcop_42
p1088
I1096
sVfpga_dcop_43
p1089
I1097
sVfpga_dcop_44
p1090
I1098
sVfpga_dcop_45
p1091
I1099
sVfpga_dcop_46
p1092
I1100
sVfpga_dcop_47
p1093
I1101
sVfpga_dcop_48
p1094
I1102
sVfpga_dcop_49
p1095
I1103
sVfpga_dcop_50
p1096
I1104
sVfpga_dcop_51
p1097
I1105
sVfpga_trans_01
p1098
I1106
sVfpga_trans_02
p1099
I1107
sVinit_adder1
p1100
I1108
sVmult_dcop_01
p1101
I1109
sVmult_dcop_02
p1102
I1110
sVmult_dcop_03
p1103
I1111
sVoscil_dcop_01
p1104
I1112
sVoscil_dcop_02
p1105
I1113
sVoscil_dcop_03
p1106
I1114
sVoscil_dcop_04
p1107
I1115
sVoscil_dcop_05
p1108
I1116
sVoscil_dcop_06
p1109
I1117
sVoscil_dcop_07
p1110
I1118
sVoscil_dcop_08
p1111
I1119
sVoscil_dcop_09
p1112
I1120
sVoscil_dcop_10
p1113
I1121
sVoscil_dcop_11
p1114
I1122
sVoscil_dcop_12
p1115
I1123
sVoscil_dcop_13
p1116
I1124
sVoscil_dcop_14
p1117
I1125
sVoscil_dcop_15
p1118
I1126
sVoscil_dcop_16
p1119
I1127
sVoscil_dcop_17
p1120
I1128
sVoscil_dcop_18
p1121
I1129
sVoscil_dcop_19
p1122
I1130
sVoscil_dcop_20
p1123
I1131
sVoscil_dcop_21
p1124
I1132
sVoscil_dcop_22
p1125
I1133
sVoscil_dcop_23
p1126
I1134
sVoscil_dcop_24
p1127
I1135
sVoscil_dcop_25
p1128
I1136
sVoscil_dcop_26
p1129
I1137
sVoscil_dcop_27
p1130
I1138
sVoscil_dcop_28
p1131
I1139
sVoscil_dcop_29
p1132
I1140
sVoscil_dcop_30
p1133
I1141
sVoscil_dcop_31
p1134
I1142
sVoscil_dcop_32
p1135
I1143
sVoscil_dcop_33
p1136
I1144
sVoscil_dcop_34
p1137
I1145
sVoscil_dcop_35
p1138
I1146
sVoscil_dcop_36
p1139
I1147
sVoscil_dcop_37
p1140
I1148
sVoscil_dcop_38
p1141
I1149
sVoscil_dcop_39
p1142
I1150
sVoscil_dcop_40
p1143
I1151
sVoscil_dcop_41
p1144
I1152
sVoscil_dcop_42
p1145
I1153
sVoscil_dcop_43
p1146
I1154
sVoscil_dcop_44
p1147
I1155
sVoscil_dcop_45
p1148
I1156
sVoscil_dcop_46
p1149
I1157
sVoscil_dcop_47
p1150
I1158
sVoscil_dcop_48
p1151
I1159
sVoscil_dcop_49
p1152
I1160
sVoscil_dcop_50
p1153
I1161
sVoscil_dcop_51
p1154
I1162
sVoscil_dcop_52
p1155
I1163
sVoscil_dcop_53
p1156
I1164
sVoscil_dcop_54
p1157
I1165
sVoscil_dcop_55
p1158
I1166
sVoscil_dcop_56
p1159
I1167
sVoscil_dcop_57
p1160
I1168
sVoscil_trans_01
p1161
I1169
sVPd
p1162
I1170
sVPd_rhs
p1163
I1171
sVHarvard500
p1164
I1172
sVcegb2802
p1165
I1173
sVcegb2919
p1166
I1174
sVcegb3024
p1167
I1175
sVcegb3306
p1168
I1176
sVlap_25
p1169
I1177
sVlock1074
p1170
I1178
sVlock2232
p1171
I1179
sVlock3491
p1172
I1180
sVlock_700
p1173
I1181
sVman_5976
p1174
I1182
sVcoupled
p1175
I1183
sVPres_Poisson
p1176
I1184
sVrajat01
p1177
I1185
sVrajat02
p1178
I1186
sVrajat03
p1179
I1187
sVrajat04
p1180
I1188
sVrajat05
p1181
I1189
sVrajat06
p1182
I1190
sVrajat07
p1183
I1191
sVrajat08
p1184
I1192
sVrajat09
p1185
I1193
sVrajat10
p1186
I1194
sVrajat11
p1187
I1195
sVrajat12
p1188
I1196
sVrajat13
p1189
I1197
sVrajat14
p1190
I1198
sVHamrle1
p1191
I1199
sVHamrle2
p1192
I1200
sVHamrle3
p1193
I1201
sVgyro_k
p1194
I1202
sVgyro_m
p1195
I1203
sVt2dah_a
p1196
I1204
sVt2dah_e
p1197
I1205
sVt2dal_a
p1198
I1206
sVt2dal_e
p1199
I1207
sVt3dh_a
p1200
I1208
sVt3dh_e
p1201
I1209
sVt3dl_a
p1202
I1210
sVt3dl_e
p1203
I1211
sVpowersim
p1204
I1212
sVLin
p1205
I1213
sVsts4098
p1206
I1214
sVaug2d
p1207
I1215
sVaug2dc
p1208
I1216
sVaug3d
p1209
I1217
sVaug3dcqp
p1210
I1218
sVbmw3_2
p1211
I1219
sVc-55
p1212
I1220
sVc-58
p1213
I1221
sVc-59
p1214
I1222
sVc-62ghs
p1215
I1223
sVc-63
p1216
I1224
sVc-68
p1217
I1225
sVc-69
p1218
I1226
sVc-70
p1219
I1227
sVc-71
p1220
I1228
sVc-72
p1221
I1229
sVcopter2
p1222
I1256
sVd_pretok
p1223
I1231
sVdarcy003
p1224
I1232
sVdawson5
p1225
I1233
sVdtoc
p1226
I1234
sVexdata_1
p1227
I1235
sVhelm2d03
p1228
I1236
sVhelm3d01
p1229
I1237
sVk1_san
p1230
I1238
sVlaser
p1231
I1239
sVmario001
p1232
I1240
sVmario002
p1233
I1241
sVncvxqp1
p1234
I1242
sVncvxqp9
p1235
I1243
sVolesnik0
p1236
I1244
sVsit100
p1237
I1245
sVstokes128
p1238
I1246
sVstokes64
p1239
I1247
sVstokes64s
p1240
I1248
sVtuma1
p1241
I1249
sVtuma2
p1242
I1250
sVturon_m
p1243
I1251
sVaudikw_1
p1244
I1252
sVbmw7st_1
p1245
I1253
sVbmwcra_1
p1246
I1254
sVcopter1
p1247
I1255
sVcrankseg_1
p1248
I1257
sVcrankseg_2
p1249
I1258
sVcrplat2
p1250
I1259
sVfcondp2
p1251
I1260
sVfinance256
p1252
I1261
sVford1
p1253
I1262
sVford2
p1254
I1263
sVfullb
p1255
I1264
sVhalfb
p1256
I1265
sVhood
p1257
I1266
sVinline_1
p1258
I1267
sVldoor
p1259
I1268
sVm_t1
p1260
I1269
sVoilpan
p1261
I1270
sVopt1
p1262
I1271
sVpds10
p1263
I1272
sVramage02
p1264
I1274
sVs3dkq4m2
p1265
I1275
sVs3dkt3m2
p1266
I1276
sVship_001
p1267
I1277
sVship_003
p1268
I1278
sVshipsec1
p1269
I1279
sVshipsec5
p1270
I1280
sVshipsec8
p1271
I1281
sVsrb1
p1272
I1282
sVthread
p1273
I1283
sVtrdheim
p1274
I1284
sVtroll
p1275
I1285
sVtsyl201
p1276
I1286
sVvanbody
p1277
I1287
sVwathen100
p1278
I1288
sVwathen120
p1279
I1289
sVx104
p1280
I1290
sVa0nsdsil
p1281
I1291
sVa2nnsnsl
p1282
I1292
sVa5esindl
p1283
I1293
sVblockqp1
p1284
I1294
sVbloweya
p1285
I1295
sVboyd1
p1286
I1296
sVboyd2
p1287
I1297
sVbrainpc2
p1288
I1298
sVbratu3d
p1289
I1299
sVcont-201
p1290
I1300
sVcont-300
p1291
I1301
sVdixmaanl
p1292
I1302
sVlinverse
p1293
I1303
sVncvxbqp1
p1294
I1304
sVncvxqp3
p1295
I1305
sVncvxqp5
p1296
I1306
sVncvxqp7
p1297
I1307
sVsparsine
p1298
I1308
sVspmsrtls
p1299
I1309
sVcvxbqp1
p1300
I1310
sVgridgena
p1301
I1311
sVjnlbrng1
p1302
I1312
sVminsurfo
p1303
I1313
sVobstclae
p1304
I1314
sVtorsion1
p1305
I1315
sVrajat15
p1306
I1316
sVmri1
p1307
I1317
sVmri2
p1308
I1318
sVairfoil_2d
p1309
I1319
sVdc1
p1310
I1320
sVdc2
p1311
I1321
sVdc3
p1312
I1322
sVtrans4
p1313
I1323
sVtrans5
p1314
I1324
sVrobot
p1315
I1325
sVrotor1
p1316
I1326
sVrotor2
p1317
I1327
sVtomography
p1318
I1328
sVKemelmacher
p1319
I1329
sVKuu
p1320
I1330
sVMuu
p1321
I1331
sVdeltaX
p1322
I1332
sVstd1_Jac2_db
p1323
I1333
sVstd1_Jac2
p1324
I1334
sVstd1_Jac3_db
p1325
I1335
sVstd1_Jac3
p1326
I1336
sVZd_Jac2_db
p1327
I1337
sVZd_Jac2
p1328
I1338
sVZd_Jac3_db
p1329
I1339
sVZd_Jac3
p1330
I1340
sVZd_Jac6_db
p1331
I1341
sVZd_Jac6
p1332
I1342
sVrajat16
p1333
I1343
sVrajat17
p1334
I1344
sVrajat18
p1335
I1345
sVrajat19
p1336
I1346
sVbundle1
p1337
I1347
sVbenzene
p1338
I1348
sVCO
p1339
I1349
sVGa10As10H30
p1340
I1350
sVGa19As19H42
p1341
I1351
sVGa3As3H12
p1342
I1352
sVGa41As41H72
p1343
I1353
sVGaAsH6
p1344
I1354
sVGe87H76
p1345
I1355
sVGe99H100
p1346
I1356
sVH2O
p1347
I1357
sVNa5
p1348
I1358
sVSi10H16
p1349
I1359
sVSi2
p1350
I1360
sVSi34H36
p1351
I1361
sVSi41Ge41H72
p1352
I1362
sVSi5H12
p1353
I1363
sVSi87H76
p1354
I1364
sVSiH4
p1355
I1365
sVSiNa
p1356
I1366
sVSiO2
p1357
I1367
sVSiO
p1358
I1368
sVrajat20
p1359
I1369
sVrajat21
p1360
I1370
sVrajat22
p1361
I1371
sVrajat23
p1362
I1372
sVrajat24
p1363
I1373
sVrajat25
p1364
I1374
sVrajat26
p1365
I1375
sVrajat27
p1366
I1376
sVrajat28
p1367
I1377
sVSieber
p1368
I1378
sVex3sta1
p1369
I1709
sVfxm3_6
p1370
I1805
sVfxm4_6
p1371
I1807
sVins2
p1372
I1382
sVlp1
p1373
I1383
sVlpl1
p1374
I1384
sVmip1
p1375
I1385
sVnet100
p1376
I1386
sVnet125
p1377
I1387
sVnet150
p1378
I1388
sVnet25
p1379
I1389
sVnet4-1
p1380
I1390
sVnet50
p1381
I1391
sVnet75
p1382
I1392
sVpattern1
p1383
I1393
sVpf2177
p1384
I1753
sVfp
p1385
I1395
sVrajat29
p1386
I1396
sVrajat30
p1387
I1397
sVrajat31
p1388
I1398
sVlaminar_duct3D
p1389
I1399
sVChem97Zt
p1390
I1400
sVChem97ZtZ
p1391
I1401
sVthermal1
p1392
I1402
sVthermal2
p1393
I1403
sVKaufhold
p1394
I1404
sVted_A
p1395
I1405
sVted_B
p1396
I1406
sVted_AB
p1397
I1407
sVted_A_unscaled
p1398
I1408
sVted_B_unscaled
p1399
I1409
sVted_AB_unscaled
p1400
I1410
sVF1
p1401
I1411
sVG2_circuit
p1402
I1412
sVckt11752_dc_1
p1403
I1413
sVckt11752_tr_0
p1404
I1414
sVASIC_100k
p1405
I1415
sVASIC_100ks
p1406
I1416
sVASIC_320k
p1407
I1417
sVASIC_320ks
p1408
I1418
sVASIC_680k
p1409
I1419
sVASIC_680ks
p1410
I1420
sVG3_circuit
p1411
I1421
sVapache1
p1412
I1422
sVapache2
p1413
I1423
sVbloweybl
p1414
I1424
sVbloweybq
p1415
I1425
sVcvxqp3
p1416
I1426
sVqpband
p1417
I1427
sVchipcool0
p1418
I1428
sVchipcool1
p1419
I1429
sVfilter2D
p1420
I1430
sVfilter3D
p1421
I1431
sVflowmeter0
p1422
I1432
sVflowmeter5
p1423
I1433
sVgas_sensor
p1424
I1434
sVgyro
p1425
I1435
sVinlet
p1426
I1436
sVLF10000
p1427
I1437
sVLF10
p1428
I1438
sVLFAT5000
p1429
I1439
sVLFAT5
p1430
I1440
sVpiston
p1431
I1441
sVrail_1357
p1432
I1442
sVrail_20209
p1433
I1443
sVrail_5177
p1434
I1444
sVrail_79841
p1435
I1445
sVspiral
p1436
I1446
sVt2dah
p1437
I1447
sVt2dal_bci
p1438
I1448
sVt2dal
p1439
I1449
sVt3dh
p1440
I1450
sVt3dl
p1441
I1451
sVwindscreen
p1442
I1452
sVbone010
p1443
I1453
sVboneS01
p1444
I1454
sVboneS10
p1445
I1455
sVCalifornia
p1446
I1456
sVCities
p1447
I1457
sVCSphd
p1448
I1458
sVdictionary28
p1449
I1459
sVdivorce
p1450
I1460
sVEAT_RS
p1451
I1461
sVEAT_SR
p1452
I1462
sVEPA
p1453
I1463
sVErdos02
p1454
I1464
sVErdos971
p1455
I1465
sVErdos972
p1456
I1466
sVErdos981
p1457
I1467
sVErdos982
p1458
I1468
sVErdos991
p1459
I1469
sVErdos992
p1460
I1470
sVEVA
p1461
I1471
sVFA
p1462
I1472
sVfoldoc
p1463
I1473
sVfootball
p1464
I2397
sVGD00_a
p1465
I1475
sVGD00_c
p1466
I1476
sVGD01_a
p1467
I1477
sVGD01_Acap
p1468
I1478
sVGD01_b
p1469
I1479
sVGD01_c
p1470
I1480
sVGD02_a
p1471
I1481
sVGD02_b
p1472
I1482
sVGD06_Java
p1473
I1483
sVGD06_theory
p1474
I1484
sVGD95_a
p1475
I1485
sVGD95_b
p1476
I1486
sVGD95_c
p1477
I1487
sVGD96_a
p1478
I1488
sVGD96_b
p1479
I1489
sVGD96_c
p1480
I1490
sVGD96_d
p1481
I1491
sVGD97_a
p1482
I1492
sVGD97_b
p1483
I1493
sVGD97_c
p1484
I1494
sVGD98_a
p1485
I1495
sVGD98_b
p1486
I1496
sVGD98_c
p1487
I1497
sVGD99_b
p1488
I1498
sVGD99_c
p1489
I1499
sVgeom
p1490
I1500
sVGlossGT
p1491
I1501
sVHEP-th
p1492
I1502
sVHEP-th-new
p1493
I1503
sVIMDB
p1494
I1504
sVinternet
p1495
I1505
sVJournals
p1496
I1506
sVKohonen
p1497
I1507
sVLederberg
p1498
I1508
sVNotreDame_actors
p1499
I1509
sVNotreDame_www
p1500
I1510
sVNotreDame_yeast
p1501
I1511
sVODLIS
p1502
I1512
sVpatents_main
p1503
I1513
sVpatents
p1504
I1514
sVRagusa16
p1505
I1515
sVRagusa18
p1506
I1516
sVReuters911
p1507
I1517
sVRoget
p1508
I1518
sVSandi_authors
p1509
I1519
sVSandi_sandi
p1510
I1520
sVSciMet
p1511
I1521
sVSmaGri
p1512
I1522
sVSmallW
p1513
I1523
sVStranke94
p1514
I1524
sVTina_AskCal
p1515
I1525
sVTina_AskCog
p1516
I1526
sVTina_DisCal
p1517
I1527
sVTina_DisCog
p1518
I1528
sVUSAir97
p1519
I1529
sVUSpowerGrid
p1520
I1530
sVWordnet3
p1521
I1531
sVWorldCities
p1522
I1532
sVyeast
p1523
I1533
sVZewail
p1524
I1534
sVextr1b
p1525
I1535
sVhydr1c
p1526
I1536
sVc-18
p1527
I1537
sVc-19
p1528
I1538
sVc-20
p1529
I1539
sVc-21
p1530
I1540
sVc-22
p1531
I1541
sVc-23
p1532
I1542
sVc-24
p1533
I1543
sVc-25
p1534
I1544
sVc-26
p1535
I1545
sVc-27
p1536
I1546
sVc-28
p1537
I1547
sVc-29
p1538
I1548
sVc-30
p1539
I1549
sVc-31
p1540
I1550
sVc-32
p1541
I1551
sVc-33
p1542
I1552
sVc-34
p1543
I1553
sVc-35
p1544
I1554
sVc-36
p1545
I1555
sVc-37
p1546
I1556
sVc-38
p1547
I1557
sVc-39
p1548
I1558
sVc-40
p1549
I1559
sVc-41
p1550
I1560
sVc-42
p1551
I1561
sVc-43
p1552
I1562
sVc-44
p1553
I1563
sVc-45
p1554
I1564
sVc-46
p1555
I1565
sVc-47
p1556
I1566
sVc-48
p1557
I1567
sVc-49
p1558
I1568
sVc-50
p1559
I1569
sVc-51
p1560
I1570
sVc-52
p1561
I1571
sVc-53
p1562
I1572
sVc-54
p1563
I1573
sVc-56
p1564
I1574
sVc-57
p1565
I1575
sVc-60
p1566
I1576
sVc-61
p1567
I1577
sVc-65
p1568
I1578
sVc-big
p1569
I1579
sVaf_0_k101
p1570
I1580
sVaf_1_k101
p1571
I1581
sVaf_2_k101
p1572
I1582
sVaf_3_k101
p1573
I1583
sVaf_4_k101
p1574
I1584
sVaf_5_k101
p1575
I1585
sVaf_shell10
p1576
I1586
sVc-64b
p1577
I1587
sVc-66b
p1578
I1588
sVc-67b
p1579
I1589
sVc-73b
p1580
I1590
sVconf5_0-4x4-10
p1581
I1591
sVconf5_0-4x4-14
p1582
I1592
sVconf5_0-4x4-18
p1583
I1593
sVconf5_0-4x4-22
p1584
I1594
sVconf5_0-4x4-26
p1585
I1595
sVconf6_0-4x4-20
p1586
I1596
sVconf6_0-4x4-30
p1587
I1597
sVconf5_4-8x8-05
p1588
I1598
sVconf5_4-8x8-10
p1589
I1599
sVconf5_4-8x8-15
p1590
I1600
sVconf5_4-8x8-20
p1591
I1601
sVconf6_0-8x8-20
p1592
I1602
sVconf6_0-8x8-30
p1593
I1603
sVconf6_0-8x8-80
p1594
I1604
sVs1rmq4m1
p1595
I1605
sVs2rmq4m1
p1596
I1606
sVs3rmq4m1
p1597
I1607
sVs1rmt3m1
p1598
I1608
sVs2rmt3m1
p1599
I1609
sVs3rmt3m1
p1600
I1610
sVs3rmt3m3
p1601
I1611
sVcryg10000
p1602
I1612
sVcryg2500
p1603
I1613
sVdw2048
p1604
I1614
sVdw8192
p1605
I1615
sVdwa512
p1606
I1616
sVdwb512
p1607
I1617
sVdwg961a
p1608
I1618
sVdwg961b
p1609
I1619
sVmhd1280a
p1610
I1620
sVmhd1280b
p1611
I1621
sVmhd3200a
p1612
I1622
sVmhd3200b
p1613
I1623
sVmhd4800a
p1614
I1624
sVmhd4800b
p1615
I1625
sVqh1484
p1616
I1626
sVqh768
p1617
I1627
sVrdb1250
p1618
I1628
sVrdb1250l
p1619
I1629
sVrdb200
p1620
I1630
sVrdb200l
p1621
I1631
sVrdb2048_noL
p1622
I1632
sVrdb3200l
p1623
I1633
sVrdb450
p1624
I1634
sVrdb450l
p1625
I1635
sVrdb800l
p1626
I1636
sVtols1090
p1627
I1637
sVtols2000
p1628
I1638
sVtols340
p1629
I1639
sVtols4000
p1630
I1640
sVtols90
p1631
I1641
sVinvextr1_new
p1632
I1642
sVmixtank_new
p1633
I1643
sVmsdoor
p1634
I1644
sVnug08-3rd
p1635
I1645
sVpds-30
p1636
I1646
sVpds-40
p1637
I1647
sVpds-50
p1638
I1648
sVpds-60
p1639
I1649
sVpds-70
p1640
I1650
sVpds-80
p1641
I1651
sVpds-90
p1642
I1652
sVpds-100
p1643
I1653
sVrail507
p1644
I1654
sVrail516
p1645
I1655
sVrail582
p1646
I1656
sVrail2586
p1647
I1657
sVrail4284
p1648
I1658
sVsgpf5y6
p1649
I1659
sVstormG2_1000
p1650
I1660
sVwatson_1
p1651
I1661
sVwatson_2
p1652
I1662
sVcont11_l
p1653
I1663
sVcont1_l
p1654
I1664
sVfome11
p1655
I1665
sVfome12
p1656
I1666
sVfome13
p1657
I1667
sVfome20
p1658
I1668
sVfome21
p1659
I1669
sVneos
p1660
I1670
sVneos1
p1661
I1671
sVneos2
p1662
I1672
sVneos3
p1663
I1673
sVspal_004
p1664
I1674
sVgams10am
p1665
I1675
sVgams30am
p1666
I1676
sVgams60am
p1667
I1677
sVgas11
p1668
I1678
sVaa01
p1669
I1679
sVaa03
p1670
I1680
sVaa3
p1671
I1681
sVaa4
p1672
I1682
sVaa5
p1673
I1683
sVaa6
p1674
I1684
sVair02
p1675
I1685
sVair03
p1676
I1686
sVair04
p1677
I1687
sVair05
p1678
I1688
sVair06
p1679
I1689
sVaircraft
p1680
I1690
sVbas1lp
p1681
I1691
sVbaxter
p1682
I1692
sVcar4
p1683
I1693
sVcari
p1684
I1694
sVch
p1685
I1695
sVco5
p1686
I1696
sVco9
p1687
I1697
sVcomplex
p1688
I1698
sVcq5
p1689
I1699
sVcq9
p1690
I1700
sVcr42
p1691
I1701
sVcrew1
p1692
I1702
sVdano3mip
p1693
I1703
sVdbic1
p1694
I1704
sVdbir1
p1695
I1705
sVdbir2
p1696
I1706
sVdf2177
p1697
I1707
sVe18
p1698
I1708
sVfarm
p1699
I1710
sVgams10a
p1700
I1711
sVgams30a
p1701
I1712
sVge
p1702
I1713
sViiasa
p1703
I1714
sVjendrec1
p1704
I1715
sVkl02
p1705
I1716
sVl9
p1706
I1717
sVlp22
p1707
I1718
sVlpl2
p1708
I1719
sVlpl3
p1709
I1720
sVmod2
p1710
I1721
sVmodel1
p1711
I1722
sVmodel2
p1712
I1723
sVmodel3
p1713
I1724
sVmodel4
p1714
I1725
sVmodel5
p1715
I1726
sVmodel6
p1716
I1727
sVmodel7
p1717
I1728
sVmodel8
p1718
I1729
sVmodel9
p1719
I1730
sVmodel10
p1720
I1731
sVnemsafm
p1721
I1732
sVnemscem
p1722
I1733
sVnemsemm1
p1723
I1734
sVnemsemm2
p1724
I1735
sVnemspmm1
p1725
I1736
sVnemspmm2
p1726
I1737
sVnemswrld
p1727
I1738
sVnl
p1728
I1739
sVnw14
p1729
I1740
sVp0033
p1730
I1741
sVp0040
p1731
I1742
sVp010
p1732
I1743
sVp0201
p1733
I1744
sVp0282
p1734
I1745
sVp0291
p1735
I1746
sVp0548
p1736
I1747
sVp05
p1737
I1748
sVp2756
p1738
I1749
sVp6000
p1739
I1750
sVpcb1000
p1740
I1751
sVpcb3000
p1741
I1752
sVprimagaz
p1742
I1754
sVproblem
p1743
I1755
sVprogas
p1744
I1756
sVqiulp
p1745
I1757
sVr05
p1746
I1758
sVrefine
p1747
I1759
sVrlfddd
p1748
I1760
sVrlfdual
p1749
I1761
sVrlfprim
p1750
I1762
sVrosen1
p1751
I1763
sVrosen2
p1752
I1764
sVrosen7
p1753
I1765
sVrosen8
p1754
I1766
sVrosen10
p1755
I1767
sVroute
p1756
I1768
sVseymourl
p1757
I1769
sVslptsk
p1758
I1770
sVsouth31
p1759
I1771
sVstat96v1
p1760
I1772
sVstat96v2
p1761
I1773
sVstat96v3
p1762
I1774
sVstat96v4
p1763
I1775
sVstat96v5
p1764
I1776
sVt0331-4l
p1765
I1777
sVtestbig
p1766
I1778
sVulevimin
p1767
I1779
sVus04
p1768
I1780
sVworld
p1769
I1781
sVzed
p1770
I1782
sVde063155
p1771
I1783
sVde063157
p1772
I1784
sVde080285
p1773
I1785
sVgen1
p1774
I1786
sVgen2
p1775
I1787
sVgen4
p1776
I1788
sVgen
p1777
I1789
sViprob
p1778
I1790
sVl30
p1779
I1791
sVstoch_aircraft
p1780
I1792
sVcep1
p1781
I1793
sVdeter0
p1782
I1794
sVdeter1
p1783
I1795
sVdeter2
p1784
I1796
sVdeter3
p1785
I1797
sVdeter4
p1786
I1798
sVdeter5
p1787
I1799
sVdeter6
p1788
I1800
sVdeter7
p1789
I1801
sVdeter8
p1790
I1802
sVfxm2-6
p1791
I1803
sVfxm2-16
p1792
I1804
sVfxm3_16
p1793
I1806
sVpgp2
p1794
I1808
sVstormg2-125
p1795
I1809
sVstormg2-27
p1796
I1810
sVstormg2-8
p1797
I1811
sVdegme
p1798
I1812
sVkarted
p1799
I1813
sVtp-6
p1800
I1814
sVts-palko
p1801
I1815
sVdelf
p1802
I1816
sVkleemin
p1803
I1817
sVlarge
p1804
I1818
sVnsct
p1805
I1819
sVnsic
p1806
I1820
sVnsir
p1807
I1821
sVplddb
p1808
I1822
sVrat
p1809
I1823
sVsmall
p1810
I1824
sVpltexpa
p1811
I1825
sVsc205-2r
p1812
I1826
sVscagr7-2b
p1813
I1827
sVscagr7-2c
p1814
I1828
sVscagr7-2r
p1815
I1829
sVscfxm1-2b
p1816
I1830
sVscfxm1-2r
p1817
I1831
sVscrs8-2b
p1818
I1832
sVscrs8-2c
p1819
I1833
sVscrs8-2r
p1820
I1834
sVscsd8-2b
p1821
I1835
sVscsd8-2c
p1822
I1836
sVscsd8-2r
p1823
I1837
sVsctap1-2b
p1824
I1838
sVsctap1-2c
p1825
I1839
sVsctap1-2r
p1826
I1840
sVwb-cs-stanford
p1827
I1841
sVwb-edu
p1828
I1842
sVwikipedia-20051105
p1829
I1843
sVwikipedia-20060925
p1830
I1844
sVwikipedia-20061104
p1831
I1845
sVwikipedia-20070206
p1832
I1846
sVDubcova1
p1833
I1847
sVDubcova2
p1834
I1848
sVDubcova3
p1835
I1849
sVBenElechi1
p1836
I1850
sVFEM_3D_thermal1
p1837
I1851
sVFEM_3D_thermal2
p1838
I1852
sVparabolic_fem
p1839
I1853
sVchem_master1
p1840
I1854
sVBaumann
p1841
I1855
sV3Dspectralwave
p1842
I1856
sV3Dspectralwave2
p1843
I1857
sVcrashbasis
p1844
I1858
sVmajorbasis
p1845
I1859
sVESOC
p1846
I1860
sVF2
p1847
I1861
sVIll_Stokes
p1848
I1862
sVRaj1
p1849
I1863
sVChebyshev1
p1850
I1864
sVChebyshev2
p1851
I1865
sVChebyshev3
p1852
I1866
sVChebyshev4
p1853
I1867
sVviscoplastic1
p1854
I1868
sVviscoplastic2
p1855
I1869
sVpsse0
p1856
I1870
sVpsse1
p1857
I1871
sVpsse2
p1858
I1872
sVlight_in_tissue
p1859
I1873
sVhvdc1
p1860
I1874
sVhvdc2
p1861
I1875
sVkkt_power
p1862
I1876
sVRFdevice
p1863
I1877
sVfem_filter
p1864
I1878
sVviscorocks
p1865
I1879
sVwater_tank
p1866
I1880
sVRucci1
p1867
I1881
sVecology1
p1868
I1882
sVecology2
p1869
I1883
sVMaragal_1
p1870
I1884
sVMaragal_2
p1871
I1885
sVMaragal_3
p1872
I1886
sVMaragal_4
p1873
I1887
sVMaragal_5
p1874
I1888
sVMaragal_6
p1875
I1889
sVMaragal_7
p1876
I1890
sVeurqsa
p1877
I1891
sVdenormal
p1878
I1892
sVlargebasis
p1879
I1893
sVQRpivot
p1880
I1894
sVphotogrammetry
p1881
I1895
sVcircuit204
p1882
I1896
sVt2em
p1883
I1897
sVtmt_unsym
p1884
I1898
sVtmt_sym
p1885
I1899
sVvfem
p1886
I1900
sVnlpkkt80
p1887
I1901
sVnlpkkt120
p1888
I1902
sVnlpkkt160
p1889
I1903
sVnlpkkt200
p1890
I1904
sVnlpkkt240
p1891
I1905
sVs4dkt3m2
p1892
I1906
sVg3rmt3m3
p1893
I1907
sVt520
p1894
I1908
sVsmt
p1895
I1909
sVengine
p1896
I1910
sVplbuckle
p1897
I1911
sVcbuckle
p1898
I1912
sVcyl6
p1899
I1913
sVtube1
p1900
I1914
sVtube2
p1901
I1915
sVt2d_q4
p1902
I1916
sVt2d_q9
p1903
I1917
sVphotogrammetry2
p1904
I1918
sV2cubes_sphere
p1905
I1919
sVbibd_9_3
p1906
I1920
sVbibd_9_5
p1907
I1921
sVbibd_11_5
p1908
I1922
sVbibd_12_4
p1909
I1923
sVbibd_12_5
p1910
I1924
sVbibd_13_6
p1911
I1925
sVbibd_14_7
p1912
I1926
sVbibd_15_3
p1913
I1927
sVbibd_15_7
p1914
I1928
sVbibd_16_8
p1915
I1929
sVbibd_17_3
p1916
I1930
sVbibd_17_4b
p1917
I1931
sVbibd_17_4
p1918
I1932
sVbibd_17_8
p1919
I1933
sVbibd_18_9
p1920
I1934
sVbibd_19_9
p1921
I1935
sVbibd_20_10
p1922
I1936
sVbibd_22_8
p1923
I1937
sVbibd_49_3
p1924
I1938
sVbibd_81_2
p1925
I1939
sVbibd_81_3
p1926
I1940
sVCAG_mat1916
p1927
I1941
sVCAG_mat364
p1928
I1942
sVCAG_mat72
p1929
I1943
sVTF10
p1930
I1944
sVTF11
p1931
I1945
sVTF12
p1932
I1946
sVTF13
p1933
I1947
sVTF14
p1934
I1948
sVTF15
p1935
I1949
sVTF16
p1936
I1950
sVTF17
p1937
I1951
sVTF18
p1938
I1952
sVTF19
p1939
I1953
sVFranz1
p1940
I1954
sVFranz2
p1941
I1955
sVFranz3
p1942
I1956
sVFranz4
p1943
I1957
sVFranz5
p1944
I1958
sVFranz6
p1945
I1959
sVFranz7
p1946
I1960
sVFranz8
p1947
I1961
sVFranz9
p1948
I1962
sVFranz10
p1949
I1963
sVFranz11
p1950
I1964
sVIG5-6
p1951
I1965
sVIG5-7
p1952
I1966
sVIG5-8
p1953
I1967
sVIG5-9
p1954
I1968
sVIG5-10
p1955
I1969
sVIG5-11
p1956
I1970
sVIG5-12
p1957
I1971
sVIG5-13
p1958
I1972
sVIG5-14
p1959
I1973
sVIG5-15
p1960
I1974
sVIG5-16
p1961
I1975
sVIG5-17
p1962
I1976
sVIG5-18
p1963
I1977
sVGL6_D_6
p1964
I1978
sVGL6_D_7
p1965
I1979
sVGL6_D_8
p1966
I1980
sVGL6_D_9
p1967
I1981
sVGL6_D_10
p1968
I1982
sVGL7d10
p1969
I1983
sVGL7d11
p1970
I1984
sVGL7d12
p1971
I1985
sVGL7d13
p1972
I1986
sVGL7d14
p1973
I1987
sVGL7d15
p1974
I1988
sVGL7d16
p1975
I1989
sVGL7d17
p1976
I1990
sVGL7d18
p1977
I1991
sVGL7d19
p1978
I1992
sVGL7d20
p1979
I1993
sVGL7d21
p1980
I1994
sVGL7d22
p1981
I1995
sVGL7d23
p1982
I1996
sVGL7d24
p1983
I1997
sVGL7d25
p1984
I1998
sVGL7d26
p1985
I1999
sVc8_mat11
p1986
I2000
sVc8_mat11_I
p1987
I2001
sVf855_mat9
p1988
I2002
sVf855_mat9_I
p1989
I2003
sVHFE18_96_in
p1990
I2004
sVrkat7_mat5
p1991
I2005
sVrobot24c1_mat5
p1992
I2006
sVrobot24c1_mat5_J
p1993
I2007
sVch3-3-b1
p1994
I2008
sVch3-3-b2
p1995
I2009
sVch4-4-b1
p1996
I2010
sVch4-4-b2
p1997
I2011
sVch4-4-b3
p1998
I2012
sVch5-5-b1
p1999
I2013
sVch5-5-b2
p2000
I2014
sVch5-5-b3
p2001
I2015
sVch5-5-b4
p2002
I2016
sVch6-6-b1
p2003
I2017
sVch6-6-b2
p2004
I2018
sVch6-6-b3
p2005
I2019
sVch6-6-b4
p2006
I2020
sVch6-6-b5
p2007
I2021
sVch7-6-b1
p2008
I2022
sVch7-6-b2
p2009
I2023
sVch7-6-b3
p2010
I2024
sVch7-6-b4
p2011
I2025
sVch7-6-b5
p2012
I2026
sVch7-7-b1
p2013
I2027
sVch7-7-b2
p2014
I2028
sVch7-7-b5
p2015
I2029
sVch7-8-b1
p2016
I2030
sVch7-8-b2
p2017
I2031
sVch7-8-b3
p2018
I2032
sVch7-8-b4
p2019
I2033
sVch7-8-b5
p2020
I2034
sVch7-9-b1
p2021
I2035
sVch7-9-b2
p2022
I2036
sVch7-9-b3
p2023
I2037
sVch7-9-b4
p2024
I2038
sVch7-9-b5
p2025
I2039
sVch8-8-b1
p2026
I2040
sVch8-8-b2
p2027
I2041
sVch8-8-b3
p2028
I2042
sVch8-8-b4
p2029
I2043
sVch8-8-b5
p2030
I2044
sVcis-n4c6-b1
p2031
I2045
sVcis-n4c6-b13
p2032
I2046
sVcis-n4c6-b14
p2033
I2047
sVcis-n4c6-b15
p2034
I2048
sVcis-n4c6-b2
p2035
I2049
sVcis-n4c6-b3
p2036
I2050
sVcis-n4c6-b4
p2037
I2051
sVD6-6
p2038
I2052
sVklein-b1
p2039
I2053
sVklein-b2
p2040
I2054
sVlutz30-23-b6
p2041
I2055
sVm133-b3
p2042
I2056
sVmk10-b1
p2043
I2057
sVmk10-b2
p2044
I2058
sVmk10-b3
p2045
I2059
sVmk10-b4
p2046
I2060
sVmk11-b1
p2047
I2061
sVmk11-b2
p2048
I2062
sVmk11-b3
p2049
I2063
sVmk11-b4
p2050
I2064
sVmk11-b4b
p2051
I2065
sVmk12-b1
p2052
I2066
sVmk12-b2
p2053
I2067
sVmk12-b3
p2054
I2068
sVmk12-b4
p2055
I2069
sVmk12-b5
p2056
I2070
sVmk13-b5
p2057
I2071
sVmk9-b1
p2058
I2072
sVmk9-b2
p2059
I2073
sVmk9-b3
p2060
I2074
sVn2c6-b10
p2061
I2075
sVn2c6-b1
p2062
I2076
sVn2c6-b2
p2063
I2077
sVn2c6-b3
p2064
I2078
sVn2c6-b4
p2065
I2079
sVn2c6-b5
p2066
I2080
sVn2c6-b6
p2067
I2081
sVn2c6-b7
p2068
I2082
sVn2c6-b8
p2069
I2083
sVn2c6-b9
p2070
I2084
sVn3c4-b1
p2071
I2085
sVn3c4-b2
p2072
I2086
sVn3c4-b3
p2073
I2087
sVn3c4-b4
p2074
I2088
sVn3c5-b1
p2075
I2089
sVn3c5-b2
p2076
I2090
sVn3c5-b3
p2077
I2091
sVn3c5-b4
p2078
I2092
sVn3c5-b5
p2079
I2093
sVn3c5-b6
p2080
I2094
sVn3c5-b7
p2081
I2095
sVn3c6-b10
p2082
I2096
sVn3c6-b1
p2083
I2097
sVn3c6-b11
p2084
I2098
sVn3c6-b2
p2085
I2099
sVn3c6-b3
p2086
I2100
sVn3c6-b4
p2087
I2101
sVn3c6-b5
p2088
I2102
sVn3c6-b6
p2089
I2103
sVn3c6-b7
p2090
I2104
sVn3c6-b8
p2091
I2105
sVn3c6-b9
p2092
I2106
sVn4c5-b10
p2093
I2107
sVn4c5-b1
p2094
I2108
sVn4c5-b11
p2095
I2109
sVn4c5-b2
p2096
I2110
sVn4c5-b3
p2097
I2111
sVn4c5-b4
p2098
I2112
sVn4c5-b5
p2099
I2113
sVn4c5-b6
p2100
I2114
sVn4c5-b7
p2101
I2115
sVn4c5-b8
p2102
I2116
sVn4c5-b9
p2103
I2117
sVn4c6-b10
p2104
I2118
sVn4c6-b11
p2105
I2119
sVn4c6-b1
p2106
I2120
sVn4c6-b12
p2107
I2121
sVn4c6-b13
p2108
I2122
sVn4c6-b14
p2109
I2123
sVn4c6-b15
p2110
I2124
sVn4c6-b2
p2111
I2125
sVn4c6-b3
p2112
I2126
sVn4c6-b4
p2113
I2127
sVn4c6-b5
p2114
I2128
sVn4c6-b6
p2115
I2129
sVn4c6-b7
p2116
I2130
sVn4c6-b8
p2117
I2131
sVn4c6-b9
p2118
I2132
sVshar_te2-b1
p2119
I2133
sVshar_te2-b2
p2120
I2134
sVshar_te2-b3
p2121
I2135
sVcase39
p2122
I2136
sVTrec3
p2123
I2137
sVTrec4
p2124
I2138
sVTrec5
p2125
I2139
sVTrec6
p2126
I2140
sVTrec7
p2127
I2141
sVTrec8
p2128
I2142
sVTrec9
p2129
I2143
sVTrec10
p2130
I2144
sVTrec11
p2131
I2145
sVTrec12
p2132
I2146
sVTrec13
p2133
I2147
sVTrec14
p2134
I2148
sVcat_ears_2_1
p2135
I2149
sVcat_ears_2_4
p2136
I2150
sVcat_ears_3_1
p2137
I2151
sVcat_ears_3_4
p2138
I2152
sVcat_ears_4_1
p2139
I2153
sVcat_ears_4_4
p2140
I2154
sVflower_4_1
p2141
I2155
sVflower_4_4
p2142
I2156
sVflower_5_1
p2143
I2157
sVflower_5_4
p2144
I2158
sVflower_7_1
p2145
I2159
sVflower_7_4
p2146
I2160
sVflower_8_1
p2147
I2161
sVflower_8_4
p2148
I2162
sVkneser_10_4_1
p2149
I2163
sVkneser_6_2_1
p2150
I2164
sVkneser_8_3_1
p2151
I2165
sVwheel_3_1
p2152
I2166
sVwheel_4_1
p2153
I2167
sVwheel_5_1
p2154
I2168
sVwheel_601
p2155
I2169
sVwheel_6_1
p2156
I2170
sVwheel_7_1
p2157
I2171
sVrel3
p2158
I2172
sVrel4
p2159
I2173
sVrel5
p2160
I2174
sVrel6
p2161
I2175
sVrel7
p2162
I2176
sVrel8
p2163
I2177
sVrel9
p2164
I2178
sVrelat3
p2165
I2179
sVrelat4
p2166
I2180
sVrelat5
p2167
I2181
sVrelat6
p2168
I2182
sVrelat7b
p2169
I2183
sVrelat7
p2170
I2184
sVrelat8
p2171
I2185
sVrelat9
p2172
I2186
sVD_5
p2173
I2187
sVD_6
p2174
I2188
sVD_7
p2175
I2189
sVD_8
p2176
I2190
sVD_9
p2177
I2191
sVD_10
p2178
I2192
sVD_11
p2179
I2193
sV08blocks
p2180
I2194
sVEX1
p2181
I2195
sVEX2
p2182
I2196
sVEX3
p2183
I2197
sVEX4
p2184
I2198
sVEX5
p2185
I2199
sVEX6
p2186
I2200
sVabtaha2
p2187
I2201
sVabtaha1
p2188
I2202
sVTrefethen_20b
p2189
I2203
sVTrefethen_20
p2190
I2204
sVTrefethen_150
p2191
I2205
sVTrefethen_200b
p2192
I2206
sVTrefethen_200
p2193
I2207
sVTrefethen_300
p2194
I2208
sVTrefethen_500
p2195
I2209
sVTrefethen_700
p2196
I2210
sVTrefethen_2000
p2197
I2211
sVTrefethen_20000b
p2198
I2212
sVTrefethen_20000
p2199
I2213
sVcase9
p2200
I2214
sVmono_500Hz
p2201
I2215
sVFreescale1
p2202
I2216
sVMaragal_8
p2203
I2217
sVsls
p2204
I2218
sVTSOPF_RS_b2383
p2205
I2219
sVTSOPF_FS_b300
p2206
I2220
sVTSOPF_FS_b162_c1
p2207
I2221
sVTSOPF_FS_b162_c3
p2208
I2222
sVTSOPF_FS_b162_c4
p2209
I2223
sVTSOPF_FS_b300_c1
p2210
I2224
sVTSOPF_FS_b300_c2
p2211
I2225
sVTSOPF_FS_b300_c3
p2212
I2226
sVTSOPF_FS_b39_c19
p2213
I2227
sVTSOPF_FS_b39_c30
p2214
I2228
sVTSOPF_FS_b39_c7
p2215
I2229
sVTSOPF_FS_b9_c1
p2216
I2230
sVTSOPF_FS_b9_c6
p2217
I2231
sVTSOPF_RS_b162_c1
p2218
I2232
sVTSOPF_RS_b162_c3
p2219
I2233
sVTSOPF_RS_b162_c4
p2220
I2234
sVTSOPF_RS_b2052_c1
p2221
I2235
sVTSOPF_RS_b2383_c1
p2222
I2236
sVTSOPF_RS_b300_c1
p2223
I2237
sVTSOPF_RS_b300_c2
p2224
I2238
sVTSOPF_RS_b300_c3
p2225
I2239
sVTSOPF_RS_b39_c19
p2226
I2240
sVTSOPF_RS_b39_c30
p2227
I2241
sVTSOPF_RS_b39_c7
p2228
I2242
sVTSOPF_RS_b678_c1
p2229
I2243
sVTSOPF_RS_b678_c2
p2230
I2244
sVTSOPF_RS_b9_c6
p2231
I2245
sVfem_hifreq_circuit
p2232
I2246
sVconnectus
p2233
I2247
sVimage_interp
p2234
I2248
sVmesh_deform
p2235
I2249
sV130bit
p2236
I2250
sV145bit
p2237
I2251
sV162bit
p2238
I2252
sV176bit
p2239
I2253
sV192bit
p2240
I2254
sV208bit
p2241
I2255
sVTS
p2242
I2256
sVthermomech_TC
p2243
I2257
sVthermomech_TK
p2244
I2258
sVthermomech_dM
p2245
I2259
sVthermomech_dK
p2246
I2260
sVshallow_water1
p2247
I2261
sVshallow_water2
p2248
I2262
sV12month1
p2249
I2263
sVtomographic1
p2250
I2264
sVatmosmodd
p2251
I2265
sVatmosmodj
p2252
I2266
sVatmosmodl
p2253
I2267
sVatmosmodm
p2254
I2268
sVABACUS_shell_ud
p2255
I2269
sVABACUS_shell_ld
p2256
I2270
sVABACUS_shell_md
p2257
I2271
sVABACUS_shell_hd
p2258
I2272
sVLargeRegFile
p2259
I2273
sVmemchip
p2260
I2274
sVtransient
p2261
I2275
sVcircuit5M
p2262
I2276
sVcircuit5M_dc
p2263
I2277
sVpoli3
p2264
I2278
sVpoli4
p2265
I2279
sVhuman_gene1
p2266
I2280
sVhuman_gene2
p2267
I2281
sVmouse_gene
p2268
I2282
sVoffshore
p2269
I2283
sVsoc-Epinions1
p2270
I2284
sVsoc-LiveJournal1
p2271
I2285
sVsoc-Slashdot0811
p2272
I2286
sVsoc-Slashdot0902
p2273
I2287
sVwiki-Vote
p2274
I2288
sVemail-EuAll
p2275
I2289
sVemail-Enron
p2276
I2290
sVwiki-Talk
p2277
I2291
sVcit-HepPh
p2278
I2292
sVcit-HepTh
p2279
I2293
sVcit-Patents
p2280
I2294
sVca-AstroPh
p2281
I2295
sVca-CondMat
p2282
I2296
sVca-GrQc
p2283
I2297
sVca-HepPh
p2284
I2298
sVca-HepTh
p2285
I2299
sVweb-BerkStan
p2286
I2300
sVweb-Google
p2287
I2301
sVweb-NotreDame
p2288
I2302
sVweb-Stanford
p2289
I2303
sVamazon0302
p2290
I2304
sVamazon0312
p2291
I2305
sVamazon0505
p2292
I2306
sVamazon0601
p2293
I2307
sVp2p-Gnutella04
p2294
I2308
sVp2p-Gnutella05
p2295
I2309
sVp2p-Gnutella06
p2296
I2310
sVp2p-Gnutella08
p2297
I2311
sVp2p-Gnutella09
p2298
I2312
sVp2p-Gnutella24
p2299
I2313
sVp2p-Gnutella25
p2300
I2314
sVp2p-Gnutella30
p2301
I2315
sVp2p-Gnutella31
p2302
I2316
sVroadNet-CA
p2303
I2317
sVroadNet-PA
p2304
I2318
sVroadNet-TX
p2305
I2319
sVas-735
p2306
I2320
sVas-Skitter
p2307
I2321
sVas-caida
p2308
I2322
sVOregon-1
p2309
I2323
sVOregon-2
p2310
I2324
sVsoc-sign-epinions
p2311
I2325
sVsoc-sign-Slashdot081106
p2312
I2326
sVsoc-sign-Slashdot090216
p2313
I2327
sVsoc-sign-Slashdot090221
p2314
I2328
sVgsm_106857
p2315
I2329
sVflickr
p2316
I2330
sVminnesota
p2317
I2331
sVusroads-48
p2318
I2332
sVusroads
p2319
I2333
sVDK01R
p2320
I2334
sVGT01R
p2321
I2335
sVPR02R
p2322
I2336
sVRM07R
p2323
I2337
sVww_36_pmec_36
p2324
I2338
sVww_vref_6405
p2325
I2339
sVxingo_afonso_itaipu
p2326
I2340
sVmimo8x8_system
p2327
I2341
sVmimo28x28_system
p2328
I2342
sVmimo46x46_system
p2329
I2343
sVjuba40k
p2330
I2344
sVbauru5727
p2331
I2345
sVzeros_nopss_13k
p2332
I2346
sVdescriptor_xingo6u
p2333
I2347
sVnopss_11k
p2334
I2348
sVxingo3012
p2335
I2349
sVbips98_606
p2336
I2350
sVbips98_1142
p2337
I2351
sVbips98_1450
p2338
I2352
sVbips07_1693
p2339
I2353
sVbips07_1998
p2340
I2354
sVbips07_2476
p2341
I2355
sVbips07_3078
p2342
I2356
sVM10PI_n1
p2343
I2357
sVM20PI_n1
p2344
I2358
sVM40PI_n1
p2345
I2359
sVM80PI_n1
p2346
I2360
sVM10PI_n
p2347
I2361
sVM20PI_n
p2348
I2362
sVM40PI_n
p2349
I2363
sVM80PI_n
p2350
I2364
sVS10PI_n1
p2351
I2365
sVS20PI_n1
p2352
I2366
sVS40PI_n1
p2353
I2367
sVS80PI_n1
p2354
I2368
sVS10PI_n
p2355
I2369
sVS20PI_n
p2356
I2370
sVS40PI_n
p2357
I2371
sVS80PI_n
p2358
I2372
sVpdb1HYS
p2359
I2373
sVconsph
p2360
I2374
sVcant
p2361
I2375
sVmac_econ_fwd500
p2362
I2376
sVmc2depi
p2363
I2377
sVcop20k_A
p2364
I2378
sVwebbase-1M
p2365
I2379
sVFullChip
p2366
I2380
sVEternityII_E
p2367
I2381
sVEternityII_Etilde
p2368
I2382
sVEternityII_A
p2369
I2383
sVHV15R
p2370
I2384
sVdielFilterV2clx
p2371
I2385
sVdielFilterV2real
p2372
I2386
sVdielFilterV3clx
p2373
I2387
sVdielFilterV3real
p2374
I2388
sVadjnoun
p2375
I2389
sVas-22july06
p2376
I2390
sVastro-ph
p2377
I2391
sVcelegansneural
p2378
I2392
sVcond-mat
p2379
I2393
sVcond-mat-2003
p2380
I2394
sVcond-mat-2005
p2381
I2395
sVdolphins
p2382
I2396
sVhep-th
p2383
I2398
sVkarate
p2384
I2399
sVlesmis
p2385
I2400
sVnetscience
p2386
I2401
sVpolblogs
p2387
I2402
sVpolbooks
p2388
I2403
sVpower
p2389
I2404
sVPGPgiantcompo
p2390
I2405
sVjazz
p2391
I2406
sVcelegans_metabolic
p2392
I2407
sVemail
p2393
I2408
sV3elt
p2394
I2409
sV3elt_dual
p2395
I2410
sVairfoil1
p2396
I2411
sVairfoil1_dual
p2397
I2412
sVbig_dual
p2398
I2413
sVcrack
p2399
I2414
sVcrack_dual
p2400
I2415
sVgrid1
p2401
I2416
sVgrid1_dual
p2402
I2417
sVgrid2
p2403
I2418
sVgrid2_dual
p2404
I2419
sVnetz4504
p2405
I2420
sVnetz4504_dual
p2406
I2421
sVukerbe1
p2407
I2422
sVukerbe1_dual
p2408
I2423
sVwhitaker3
p2409
I2424
sVwhitaker3_dual
p2410
I2425
sVbrack2
p2411
I2426
sVwave
p2412
I2427
sVdiag
p2413
I2428
sVL
p2414
I2429
sVL-9
p2415
I2430
sVstufe
p2416
I2431
sVstufe-10
p2417
I2432
sVbiplane-9
p2418
I2433
sVshock-9
p2419
I2434
sVbfly
p2420
I2435
sVcage
p2421
I2436
sVcca
p2422
I2437
sVccc
p2423
I2438
sVdebr
p2424
I2439
sVse
p2425
I2440
sVcnr-2000
p2426
I2441
sVin-2004
p2427
I2442
sVeu-2005
p2428
I2443
sVenron
p2429
I2444
sVamazon-2008
p2430
I2445
sVljournal-2008
p2431
I2446
sVhollywood-2009
p2432
I2447
sVdblp-2010
p2433
I2448
sVwebbase-2001
p2434
I2449
sVuk-2002
p2435
I2450
sVindochina-2004
p2436
I2451
sVit-2004
p2437
I2452
sVarabic-2005
p2438
I2453
sVsk-2005
p2439
I2454
sVuk-2005
p2440
I2455
sVcaidaRouterLevel
p2441
I2456
sVchesapeake
p2442
I2457
sVroad_central
p2443
I2458
sVroad_usa
p2444
I2459
sVcitationCiteseer
p2445
I2460
sVcoAuthorsCiteseer
p2446
I2461
sVcoAuthorsDBLP
p2447
I2462
sVcoPapersCiteseer
p2448
I2463
sVcoPapersDBLP
p2449
I2464
sVdelaunay_n10
p2450
I2465
sVdelaunay_n11
p2451
I2466
sVdelaunay_n12
p2452
I2467
sVdelaunay_n13
p2453
I2468
sVdelaunay_n14
p2454
I2469
sVdelaunay_n15
p2455
I2470
sVdelaunay_n16
p2456
I2471
sVdelaunay_n17
p2457
I2472
sVdelaunay_n18
p2458
I2473
sVdelaunay_n19
p2459
I2474
sVdelaunay_n20
p2460
I2475
sVdelaunay_n21
p2461
I2476
sVdelaunay_n22
p2462
I2477
sVdelaunay_n23
p2463
I2478
sVdelaunay_n24
p2464
I2479
sVhugebubbles-00000
p2465
I2480
sVhugebubbles-00010
p2466
I2481
sVhugebubbles-00020
p2467
I2482
sVhugetrace-00000
p2468
I2483
sVhugetrace-00010
p2469
I2484
sVhugetrace-00020
p2470
I2485
sVhugetric-00000
p2471
I2486
sVhugetric-00010
p2472
I2487
sVhugetric-00020
p2473
I2488
sVkron_g500-logn16
p2474
I2489
sVkron_g500-logn17
p2475
I2490
sVkron_g500-logn18
p2476
I2491
sVkron_g500-logn19
p2477
I2492
sVkron_g500-logn20
p2478
I2493
sVkron_g500-logn21
p2479
I2494
sVadaptive
p2480
I2495
sVchannel-500x100x100-b050
p2481
I2496
sVpacking-500x100x100-b050
p2482
I2497
sVventuriLevel3
p2483
I2498
sVrgg_n_2_15_s0
p2484
I2499
sVrgg_n_2_16_s0
p2485
I2500
sVrgg_n_2_17_s0
p2486
I2501
sVrgg_n_2_18_s0
p2487
I2502
sVrgg_n_2_19_s0
p2488
I2503
sVrgg_n_2_20_s0
p2489
I2504
sVrgg_n_2_21_s0
p2490
I2505
sVrgg_n_2_22_s0
p2491
I2506
sVrgg_n_2_23_s0
p2492
I2507
sVrgg_n_2_24_s0
p2493
I2508
sVasia_osm
p2494
I2509
sVbelgium_osm
p2495
I2510
sVeurope_osm
p2496
I2511
sVgermany_osm
p2497
I2512
sVgreat-britain_osm
p2498
I2513
sVitaly_osm
p2499
I2514
sVluxembourg_osm
p2500
I2515
sVnetherlands_osm
p2501
I2516
sV144
p2502
I2517
sV598a
p2503
I2518
sVauto
p2504
I2519
sVcs4
p2505
I2520
sVcti
p2506
I2521
sVdata
p2507
I2522
sVfe_4elt2
p2508
I2523
sVfe_body
p2509
I2524
sVfe_ocean
p2510
I2525
sVfe_rotor
p2511
I2526
sVfe_sphere
p2512
I2527
sVfe_tooth
p2513
I2528
sVm14b
p2514
I2529
sVt60k
p2515
I2530
sVuk
p2516
I2531
sVwing
p2517
I2532
sVwing_nodal
p2518
I2533
sVHTC_336_4438
p2519
I2534
sVHTC_336_9129
p2520
I2535
sVOPF_10000
p2521
I2536
sVOPF_3754
p2522
I2537
sVOPF_6000
p2523
I2538
sVTSC_OPF_1047
p2524
I2539
sVTSC_OPF_300
p2525
I2540
sVSerena
p2526
I2541
sVEmilia_923
p2527
I2542
sVFault_639
p2528
I2543
sVFlan_1565
p2529
I2544
sVGeo_1438
p2530
I2545
sVHook_1498
p2531
I2546
sVStocF-1465
p2532
I2547
sVCube_Coup_dt0
p2533
I2548
sVCube_Coup_dt6
p2534
I2549
sVLong_Coup_dt0
p2535
I2550
sVLong_Coup_dt6
p2536
I2551
sVN_biocarta
p2537
I2552
sVN_pid
p2538
I2553
sVN_reactome
p2539
I2554
sVChevron1
p2540
I2555
sVChevron2
p2541
I2556
sVChevron3
p2542
I2557
sVChevron4
p2543
I2558
sVcz148
p2544
I2559
sVcz308
p2545
I2560
sVcz628
p2546
I2561
sVcz1268
p2547
I2562
sVcz2548
p2548
I2563
sVcz5108
p2549
I2564
sVcz10228
p2550
I2565
sVcz20468
p2551
I2566
sVcz40948
p2552
I2567
sVFX_March2010
p2553
I2568
sVCurlCurl_0
p2554
I2569
sVCurlCurl_1
p2555
I2570
sVCurlCurl_2
p2556
I2571
sVCurlCurl_3
p2557
I2572
sVCurlCurl_4
p2558
I2573
sVG_n_pin_pout
p2559
I2574
sVpreferentialAttachment
p2560
I2575
sVsmallworld
p2561
I2576
sV333SP
p2562
I2577
sVAS365
p2563
I2578
sVM6
p2564
I2579
sVNACA0015
p2565
I2580
sVNLR
p2566
I2581
sVak2010
p2567
I2582
sVal2010
p2568
I2583
sVar2010
p2569
I2584
sVaz2010
p2570
I2585
sVca2010
p2571
I2586
sVco2010
p2572
I2587
sVct2010
p2573
I2588
sVde2010
p2574
I2589
sVfl2010
p2575
I2590
sVga2010
p2576
I2591
sVhi2010
p2577
I2592
sVia2010
p2578
I2593
sVid2010
p2579
I2594
sVil2010
p2580
I2595
sVin2010
p2581
I2596
sVks2010
p2582
I2597
sVky2010
p2583
I2598
sVla2010
p2584
I2599
sVma2010
p2585
I2600
sVmd2010
p2586
I2601
sVme2010
p2587
I2602
sVmi2010
p2588
I2603
sVmn2010
p2589
I2604
sVmo2010
p2590
I2605
sVms2010
p2591
I2606
sVmt2010
p2592
I2607
sVnc2010
p2593
I2608
sVnd2010
p2594
I2609
sVne2010
p2595
I2610
sVnh2010
p2596
I2611
sVnj2010
p2597
I2612
sVnm2010
p2598
I2613
sVnv2010
p2599
I2614
sVny2010
p2600
I2615
sVoh2010
p2601
I2616
sVok2010
p2602
I2617
sVor2010
p2603
I2618
sVpa2010
p2604
I2619
sVri2010
p2605
I2620
sVsc2010
p2606
I2621
sVsd2010
p2607
I2622
sVtn2010
p2608
I2623
sVtx2010
p2609
I2624
sVut2010
p2610
I2625
sVva2010
p2611
I2626
sVvt2010
p2612
I2627
sVwa2010
p2613
I2628
sVwi2010
p2614
I2629
sVwv2010
p2615
I2630
sVwy2010
p2616
I2631
sVvsp_barth5_1Ksep_50in_5Kout
p2617
I2632
sVvsp_bcsstk30_500sep_10in_1Kout
p2618
I2633
sVvsp_befref_fxm_2_4_air02
p2619
I2634
sVvsp_bump2_e18_aa01_model1_crew1
p2620
I2635
sVvsp_c-30_data_data
p2621
I2636
sVvsp_c-60_data_cti_cs4
p2622
I2637
sVvsp_data_and_seymourl
p2623
I2638
sVvsp_finan512_scagr7-2c_rlfddd
p2624
I2639
sVvsp_mod2_pgp2_slptsk
p2625
I2640
sVvsp_model1_crew1_cr42_south31
p2626
I2641
sVvsp_msc10848_300sep_100in_1Kout
p2627
I2642
sVvsp_p0291_seymourl_iiasa
p2628
I2643
sVvsp_sctap1-2b_and_seymourl
p2629
I2644
sVvsp_south31_slptsk
p2630
I2645
sVvsp_vibrobox_scagr7-2c_rlfddd
p2631
I2646
sVCoupCons3D
p2632
I2647
sVML_Laplace
p2633
I2648
sVTransport
p2634
I2649
sVML_Geer
p2635
I2650
sVDelor64K
p2636
I2651
sVDelor295K
p2637
I2652
sVDelor338K
p2638
I2653
sVLinux_call_graph
p2639
I2654
sVLeGresley_2508
p2640
I2655
sVLeGresley_4908
p2641
I2656
sVLeGresley_87936
p2642
I2657
sVspecular
p2643
I2658
sVBump_2911
p2644
I2659
sVQueen_4147
p2645
I2660
sVPFlow_742
p2646
I2661
sVFreescale2
p2647
I2662
sVMISKnowledgeMap
p2648
I2663
sVbundle_adj
p2649
I2664
sVdynamicSoaringProblem_1
p2650
I2665
sVdynamicSoaringProblem_2
p2651
I2666
sVdynamicSoaringProblem_3
p2652
I2667
sVdynamicSoaringProblem_4
p2653
I2668
sVdynamicSoaringProblem_5
p2654
I2669
sVdynamicSoaringProblem_6
p2655
I2670
sVdynamicSoaringProblem_7
p2656
I2671
sVdynamicSoaringProblem_8
p2657
I2672
sVfreeFlyingRobot_1
p2658
I2673
sVfreeFlyingRobot_2
p2659
I2674
sVfreeFlyingRobot_3
p2660
I2675
sVfreeFlyingRobot_4
p2661
I2676
sVfreeFlyingRobot_5
p2662
I2677
sVfreeFlyingRobot_6
p2663
I2678
sVfreeFlyingRobot_7
p2664
I2679
sVfreeFlyingRobot_8
p2665
I2680
sVfreeFlyingRobot_9
p2666
I2681
sVfreeFlyingRobot_10
p2667
I2682
sVfreeFlyingRobot_11
p2668
I2683
sVfreeFlyingRobot_12
p2669
I2684
sVfreeFlyingRobot_13
p2670
I2685
sVfreeFlyingRobot_14
p2671
I2686
sVfreeFlyingRobot_15
p2672
I2687
sVfreeFlyingRobot_16
p2673
I2688
sVgoddardRocketProblem_1
p2674
I2689
sVgoddardRocketProblem_2
p2675
I2690
sVhangGlider_1
p2676
I2691
sVhangGlider_2
p2677
I2692
sVhangGlider_3
p2678
I2693
sVhangGlider_4
p2679
I2694
sVhangGlider_5
p2680
I2695
sVkineticBatchReactor_1
p2681
I2696
sVkineticBatchReactor_2
p2682
I2697
sVkineticBatchReactor_3
p2683
I2698
sVkineticBatchReactor_4
p2684
I2699
sVkineticBatchReactor_5
p2685
I2700
sVkineticBatchReactor_6
p2686
I2701
sVkineticBatchReactor_7
p2687
I2702
sVkineticBatchReactor_8
p2688
I2703
sVkineticBatchReactor_9
p2689
I2704
sVlowThrust_1
p2690
I2705
sVlowThrust_2
p2691
I2706
sVlowThrust_3
p2692
I2707
sVlowThrust_4
p2693
I2708
sVlowThrust_5
p2694
I2709
sVlowThrust_6
p2695
I2710
sVlowThrust_7
p2696
I2711
sVlowThrust_8
p2697
I2712
sVlowThrust_9
p2698
I2713
sVlowThrust_10
p2699
I2714
sVlowThrust_11
p2700
I2715
sVlowThrust_12
p2701
I2716
sVlowThrust_13
p2702
I2717
sVorbitRaising_1
p2703
I2718
sVorbitRaising_2
p2704
I2719
sVorbitRaising_3
p2705
I2720
sVorbitRaising_4
p2706
I2721
sVreorientation_1
p2707
I2722
sVreorientation_2
p2708
I2723
sVreorientation_3
p2709
I2724
sVreorientation_4
p2710
I2725
sVreorientation_5
p2711
I2726
sVreorientation_6
p2712
I2727
sVreorientation_7
p2713
I2728
sVreorientation_8
p2714
I2729
sVspaceShuttleEntry_1
p2715
I2730
sVspaceShuttleEntry_2
p2716
I2731
sVspaceShuttleEntry_3
p2717
I2732
sVspaceShuttleEntry_4
p2718
I2733
sVspaceStation_1
p2719
I2734
sVspaceStation_2
p2720
I2735
sVspaceStation_3
p2721
I2736
sVspaceStation_4
p2722
I2737
sVspaceStation_5
p2723
I2738
sVspaceStation_6
p2724
I2739
sVspaceStation_7
p2725
I2740
sVspaceStation_8
p2726
I2741
sVspaceStation_9
p2727
I2742
sVspaceStation_10
p2728
I2743
sVspaceStation_11
p2729
I2744
sVspaceStation_12
p2730
I2745
sVspaceStation_13
p2731
I2746
sVspaceStation_14
p2732
I2747
sVtumorAntiAngiogenesis_1
p2733
I2748
sVtumorAntiAngiogenesis_2
p2734
I2749
sVtumorAntiAngiogenesis_3
p2735
I2750
sVtumorAntiAngiogenesis_4
p2736
I2751
sVtumorAntiAngiogenesis_5
p2737
I2752
sVtumorAntiAngiogenesis_6
p2738
I2753
sVtumorAntiAngiogenesis_7
p2739
I2754
sVtumorAntiAngiogenesis_8
p2740
I2755
sViChem_Jacobian
p2741
I2756
sVJP
p2742
I2757
sVmycielskian2
p2743
I2758
sVmycielskian3
p2744
I2759
sVmycielskian4
p2745
I2760
sVmycielskian5
p2746
I2761
sVmycielskian6
p2747
I2762
sVmycielskian7
p2748
I2763
sVmycielskian8
p2749
I2764
sVmycielskian9
p2750
I2765
sVmycielskian10
p2751
I2766
sVmycielskian11
p2752
I2767
sVmycielskian12
p2753
I2768
sVmycielskian13
p2754
I2769
sVmycielskian14
p2755
I2770
sVmycielskian15
p2756
I2771
sVmycielskian16
p2757
I2772
sVmycielskian17
p2758
I2773
sVmycielskian18
p2759
I2774
sVmycielskian19
p2760
I2775
sVmycielskian20
p2761
I2776
sVCollegeMsg
p2762
I2777
sVcom-Amazon
p2763
I2778
sVcom-DBLP
p2764
I2779
sVcom-Friendster
p2765
I2780
sVcom-LiveJournal
p2766
I2781
sVcom-Orkut
p2767
I2782
sVcom-Youtube
p2768
I2783
sVemail-Eu-core
p2769
I2784
sVemail-Eu-core-temporal
p2770
I2785
sVhiggs-twitter
p2771
I2786
sVloc-Brightkite
p2772
I2787
sVloc-Gowalla
p2773
I2788
sVsoc-Pokec
p2774
I2789
sVsoc-sign-bitcoin-alpha
p2775
I2790
sVsoc-sign-bitcoin-otc
p2776
I2791
sVsx-askubuntu
p2777
I2792
sVsx-mathoverflow
p2778
I2793
sVsx-stackoverflow
p2779
I2794
sVsx-superuser
p2780
I2795
sVtwitter7
p2781
I2796
sVwiki-RfA
p2782
I2797
sVwiki-talk-temporal
p2783
I2798
sVwiki-topcats
p2784
I2799
sVmawi_201512012345
p2785
I2800
sVmawi_201512020000
p2786
I2801
sVmawi_201512020030
p2787
I2802
sVmawi_201512020130
p2788
I2803
sVmawi_201512020330
p2789
I2804
sVkmer_A2a
p2790
I2805
sVkmer_P1a
p2791
I2806
sVkmer_U1a
p2792
I2807
sVkmer_V1r
p2793
I2808
sVkmer_V2a
p2794
I2809
sVMOLIERE_2016
p2795
I2810
sVTEM27623
p2796
I2811
sVTEM152078
p2797
I2812
sVTEM181302
p2798
I2813
sVwindtunnel_evap2d
p2799
I2814
sVwindtunnel_evap3d
p2800
I2815
sVpower197k
p2801
I2816
sVGoodwin_010
p2802
I2817
sVGoodwin_013
p2803
I2818
sVGoodwin_017
p2804
I2819
sVGoodwin_023
p2805
I2820
sVGoodwin_030
p2806
I2821
sVGoodwin_040
p2807
I2822
sVGoodwin_054
p2808
I2823
sVGoodwin_071
p2809
I2824
sVGoodwin_095
p2810
I2825
sVGoodwin_127
p2811
I2826
sVACTIVSg2000
p2812
I2827
sVACTIVSg10K
p2813
I2828
sVACTIVSg70K
p2814
I2829
sVifiss_mat
p2815
I2830
sVHardesty1
p2816
I2831
sVHardesty2
p2817
I2832
sVHardesty3
p2818
I2833
sVnv1
p2819
I2834
sVnv2
p2820
I2835
sVimagesensor
p2821
I2836
sVmosfet2
p2822
I2837
sVpower9
p2823
I2838
sVradiation
p2824
I2839
sVtest1
p2825
I2840
sVdgreen
p2826
I2841
sVvas_stokes_1M
p2827
I2842
sVvas_stokes_2M
p2828
I2843
sVvas_stokes_4M
p2829
I2844
sVstokes
p2830
I2845
sVss1
p2831
I2846
sVss
p2832
I2847
sVnxp1
p2833
I2848
sVmarine1
p2834
I2849
sVdendrimer
p2835
I2850
sVanalytics
p2836
I2851
sVGAP-twitter
p2837
I2852
sVGAP-web
p2838
I2853
sVGAP-road
p2839
I2854
sVGAP-kron
p2840
I2855
sVGAP-urand
p2841
I2856
sVBinaryalphadigs_10NN
p2842
I2857
sVbreasttissue_10NN
p2843
I2858
sVcnae9_10NN
p2844
I2859
sVcollins_15NN
p2845
I2860
sVdataset12mfeatfactors_10NN
p2846
I2861
sVdataset16mfeatkarhunen_10NN
p2847
I2862
sVdataset18mfeatmorphological_10NN
p2848
I2863
sVdataset20mfeatpixel_10NN
p2849
I2864
sVdataset22mfeatzernike_10NN
p2850
I2865
sVdermatology_5NN
p2851
I2866
sVEcoli_10NN
p2852
I2867
sVFashion_MNIST_norm_10NN
p2853
I2868
sVGlass_10NN
p2854
I2869
sVhar_10NN
p2855
I2870
sVindianpines_10NN
p2856
I2871
sViris_dataset_30NN
p2857
I2872
sVJapaneseVowelsSmall_10NN
p2858
I2873
sVk49_norm_10NN
p2859
I2874
sVkmnist_norm_10NN
p2860
I2875
sVmice_10NN
p2861
I2876
sVmicromass_10NN
p2862
I2877
sVmnist_test_norm_10NN
p2863
I2878
sVOlivetti_norm_10NN
p2864
I2879
sVoptdigits_10NN
p2865
I2880
sVPlants_10NN
p2866
I2881
sVplantsmargin_12NN
p2867
I2882
sVplantstexture_10NN
p2868
I2883
sVsemeion_10NN
p2869
I2884
sVSpectro_10NN
p2870
I2885
sVumistfacesnorm_10NN
p2871
I2886
sVusps_norm_5NN
p2872
I2887
sVVehicle_10NN
p2873
I2888
sVworms20_10NN
p2874
I2889
sVYaleA_10NN
p2875
I2890
sVYaleB_10NN
p2876
I2891
sVyeast_30NN
p2877
I2892
sVAGATHA_2015
p2878
I2893
sVnasa1824
p2879
I757
sVshuttle_eddyNasa763
p2880
I763
sVshuttle_eddyPothen881
p2881
I881
sVpf2177Andrianov1394
p2882
I1394
sVpf2177Meszaros1753
p2883
I1753
sVskirtNasa764
p2884
I764
sVskirtPothen882
p2885
I882
sVex3sta1Andrianov1379
p2886
I1379
sVex3sta1Meszaros1709
p2887
I1709
sVfxm3_6Andrianov1380
p2888
I1380
sVfxm3_6Meszaros1805
p2889
I1805
sVbarthNasa754
p2890
I754
sVbarthPothen865
p2891
I865
sVfootballPajek1474
p2892
I1474
sVfootballNewman2397
p2893
I2397
sVbarth5Nasa756
p2894
I756
sVbarth5Pothen867
p2895
I867
sVbarth4Nasa755
p2896
I755
sVbarth4Pothen866
p2897
I866
sVnasa4704Boeing365
p2898
I365
sVnasa4704Nasa760
p2899
I760
sVpwtNasa762
p2900
I762
sVpwtPothen880
p2901
I880
sVpwtGHS_psdef1273
p2902
I1273
sVnasa2910Boeing364
p2903
I364
sVnasa2910Nasa759
p2904
I759
sVcopter2GHS_indef1230
p2905
I1230
sVcopter2GHS_psdef1256
p2906
I1256
sVfxm4_6Andrianov1381
p2907
I1381
sVfxm4_6Meszaros1807
p2908
I1807
s.